libKTpCommonInternals.so.9:_ZN3KTp10TextParser14extractUrlDataERK7QStringb
libKTpCommonInternals.so.9:_ZN3KTp10TextParser8instanceEv
libKTpCommonInternals.so.9:_ZN3KTp10TextParserC1EP7QObject
libKTpCommonInternals.so.9:_ZN3KTp10TextParserC2EP7QObject
libKTpCommonInternals.so.9:_ZN3KTp10TextParserD0Ev
libKTpCommonInternals.so.9:_ZN3KTp10TextParserD1Ev
libKTpCommonInternals.so.9:_ZN3KTp10TextParserD2Ev
libKTpCommonInternals.so.9:_ZN3KTp11WalletUtils18setAccountPasswordERKN2Tp9SharedPtrINS1_7AccountEEERK7QString
libKTpCommonInternals.so.9:_ZN3KTp11WalletUtils21removeAccountPasswordERKN2Tp9SharedPtrINS1_7AccountEEE
libKTpCommonInternals.so.9:_ZN3KTp12LogsImporter11qt_metacallEN11QMetaObject4CallEiPPv
libKTpCommonInternals.so.9:_ZN3KTp12LogsImporter11qt_metacastEPKc
libKTpCommonInternals.so.9:_ZN3KTp12LogsImporter12logsImportedEv
libKTpCommonInternals.so.9:_ZN3KTp12LogsImporter13hasKopeteLogsERKN2Tp9SharedPtrINS1_7AccountEEE
libKTpCommonInternals.so.9:_ZN3KTp12LogsImporter14startLogImportERKN2Tp9SharedPtrINS1_7AccountEEE
libKTpCommonInternals.so.9:_ZN3KTp12LogsImporter5errorERK7QString
libKTpCommonInternals.so.9:_ZN3KTp12LogsImporter7Private11qt_metacallEN11QMetaObject4CallEiPPv
libKTpCommonInternals.so.9:_ZN3KTp12LogsImporter7Private11qt_metacastEPKc
libKTpCommonInternals.so.9:_ZN3KTp12LogsImporter7Private12setAccountIdERK7QString
libKTpCommonInternals.so.9:_ZN3KTp12LogsImporter7Private15initKTpDocumentEv
libKTpCommonInternals.so.9:_ZN3KTp12LogsImporter7Private15saveKTpDocumentEv
libKTpCommonInternals.so.9:_ZN3KTp12LogsImporter7Private16convertKopeteLogERK7QString
libKTpCommonInternals.so.9:_ZN3KTp12LogsImporter7Private20convertKopeteMessageERK11QDomElement
libKTpCommonInternals.so.9:_ZN3KTp12LogsImporter7Private3runEv
libKTpCommonInternals.so.9:_ZN3KTp12LogsImporter7Private5errorERK7QString
libKTpCommonInternals.so.9:_ZN3KTp12LogsImporter7PrivateC1EPS0_
libKTpCommonInternals.so.9:_ZN3KTp12LogsImporter7PrivateC2EPS0_
libKTpCommonInternals.so.9:_ZN3KTp12LogsImporter7PrivateD0Ev
libKTpCommonInternals.so.9:_ZN3KTp12LogsImporter7PrivateD1Ev
libKTpCommonInternals.so.9:_ZN3KTp12LogsImporter7PrivateD2Ev
libKTpCommonInternals.so.9:_ZN3KTp12LogsImporterC1EP7QObject
libKTpCommonInternals.so.9:_ZN3KTp12LogsImporterC2EP7QObject
libKTpCommonInternals.so.9:_ZN3KTp12LogsImporterD0Ev
libKTpCommonInternals.so.9:_ZN3KTp12LogsImporterD1Ev
libKTpCommonInternals.so.9:_ZN3KTp12LogsImporterD2Ev
libKTpCommonInternals.so.9:_ZN3KTp13PendingWallet11qt_metacallEN11QMetaObject4CallEiPPv
libKTpCommonInternals.so.9:_ZN3KTp13PendingWallet11qt_metacastEPKc
libKTpCommonInternals.so.9:_ZN3KTp13PendingWalletC1EPNS_15WalletInterfaceE
libKTpCommonInternals.so.9:_ZN3KTp13PendingWalletC2EPNS_15WalletInterfaceE
libKTpCommonInternals.so.9:_ZN3KTp13PendingWalletD0Ev
libKTpCommonInternals.so.9:_ZN3KTp13PendingWalletD1Ev
libKTpCommonInternals.so.9:_ZN3KTp13PendingWalletD2Ev
libKTpCommonInternals.so.9:_ZN3KTp14ContactFactory6createERKN2Tp8FeaturesE
libKTpCommonInternals.so.9:_ZN3KTp14ContactFactoryC1ERKN2Tp8FeaturesE
libKTpCommonInternals.so.9:_ZN3KTp14ContactFactoryC2ERKN2Tp8FeaturesE
libKTpCommonInternals.so.9:_ZN3KTp14GlobalPresence11qt_metacallEN11QMetaObject4CallEiPPv
libKTpCommonInternals.so.9:_ZN3KTp14GlobalPresence11qt_metacastEPKc
libKTpCommonInternals.so.9:_ZN3KTp14GlobalPresence11setPresenceENS0_22ConnectionPresenceTypeE7QStringNS0_13PresenceClassE
libKTpCommonInternals.so.9:_ZN3KTp14GlobalPresence11setPresenceERKNS_8PresenceENS0_13PresenceClassE
libKTpCommonInternals.so.9:_ZN3KTp14GlobalPresence16changingPresenceEb
libKTpCommonInternals.so.9:_ZN3KTp14GlobalPresence17addAccountManagerERKN2Tp9SharedPtrINS1_14AccountManagerEEE
libKTpCommonInternals.so.9:_ZN3KTp14GlobalPresence17setAccountManagerERKN2Tp9SharedPtrINS1_14AccountManagerEEE
libKTpCommonInternals.so.9:_ZN3KTp14GlobalPresence18onChangingPresenceEb
libKTpCommonInternals.so.9:_ZN3KTp14GlobalPresence19accountManagerReadyEv
libKTpCommonInternals.so.9:_ZN3KTp14GlobalPresence22currentPresenceChangedERKNS_8PresenceE
libKTpCommonInternals.so.9:_ZN3KTp14GlobalPresence22enabledAccountsChangedEb
libKTpCommonInternals.so.9:_ZN3KTp14GlobalPresence23connectionStatusChangedENS0_16ConnectionStatusE
libKTpCommonInternals.so.9:_ZN3KTp14GlobalPresence23onAccountEnabledChangedERKN2Tp9SharedPtrINS1_7AccountEEE
libKTpCommonInternals.so.9:_ZN3KTp14GlobalPresence24onCurrentPresenceChangedERKN2Tp8PresenceE
libKTpCommonInternals.so.9:_ZN3KTp14GlobalPresence24requestedPresenceChangedERKNS_8PresenceE
libKTpCommonInternals.so.9:_ZN3KTp14GlobalPresence25onConnectionStatusChangedEN2Tp16ConnectionStatusE
libKTpCommonInternals.so.9:_ZN3KTp14GlobalPresence26onRequestedPresenceChangedERKN2Tp8PresenceE
libKTpCommonInternals.so.9:_ZN3KTp14GlobalPresenceC1EP7QObject
libKTpCommonInternals.so.9:_ZN3KTp14GlobalPresenceC2EP7QObject
libKTpCommonInternals.so.9:_ZN3KTp14MessageContextC1ERKN2Tp9SharedPtrINS1_7AccountEEERKNS2_INS1_11TextChannelEEE
libKTpCommonInternals.so.9:_ZN3KTp14MessageContextC2ERKN2Tp9SharedPtrINS1_7AccountEEERKNS2_INS1_11TextChannelEEE
libKTpCommonInternals.so.9:_ZN3KTp14MessageContextD0Ev
libKTpCommonInternals.so.9:_ZN3KTp14MessageContextD1Ev
libKTpCommonInternals.so.9:_ZN3KTp14MessageContextD2Ev
libKTpCommonInternals.so.9:_ZN3KTp14accountFactoryEv
libKTpCommonInternals.so.9:_ZN3KTp14accountManagerEv
libKTpCommonInternals.so.9:_ZN3KTp14channelFactoryEv
libKTpCommonInternals.so.9:_ZN3KTp14contactFactoryEv
libKTpCommonInternals.so.9:_ZN3KTp14contactManagerEv
libKTpCommonInternals.so.9:_ZN3KTp14kpeopleEnabledEv
libKTpCommonInternals.so.9:_ZN3KTp15ErrorDictionary24displayShortErrorMessageERK7QString
libKTpCommonInternals.so.9:_ZN3KTp15ErrorDictionary26displayVerboseErrorMessageERK7QString
libKTpCommonInternals.so.9:_ZN3KTp15OutgoingMessage7setTextERK7QString
libKTpCommonInternals.so.9:_ZN3KTp15OutgoingMessage7setTypeEN2Tp22ChannelTextMessageTypeE
libKTpCommonInternals.so.9:_ZN3KTp15OutgoingMessageC1ERK7QString
libKTpCommonInternals.so.9:_ZN3KTp15OutgoingMessageC1ERKS0_
libKTpCommonInternals.so.9:_ZN3KTp15OutgoingMessageC2ERK7QString
libKTpCommonInternals.so.9:_ZN3KTp15OutgoingMessageC2ERKS0_
libKTpCommonInternals.so.9:_ZN3KTp15OutgoingMessageD0Ev
libKTpCommonInternals.so.9:_ZN3KTp15OutgoingMessageD1Ev
libKTpCommonInternals.so.9:_ZN3KTp15OutgoingMessageD2Ev
libKTpCommonInternals.so.9:_ZN3KTp15OutgoingMessageaSERKS0_
libKTpCommonInternals.so.9:_ZN3KTp15WalletInterface10openWalletEv
libKTpCommonInternals.so.9:_ZN3KTp15WalletInterface11hasPasswordERKN2Tp9SharedPtrINS1_7AccountEEE
libKTpCommonInternals.so.9:_ZN3KTp15WalletInterface11removeEntryERKN2Tp9SharedPtrINS1_7AccountEEERK7QString
libKTpCommonInternals.so.9:_ZN3KTp15WalletInterface11setPasswordERKN2Tp9SharedPtrINS1_7AccountEEERK7QString
libKTpCommonInternals.so.9:_ZN3KTp15WalletInterface13removeAccountERKN2Tp9SharedPtrINS1_7AccountEEE
libKTpCommonInternals.so.9:_ZN3KTp15WalletInterface14removePasswordERKN2Tp9SharedPtrINS1_7AccountEEE
libKTpCommonInternals.so.9:_ZN3KTp15WalletInterface15lastLoginFailedERKN2Tp9SharedPtrINS1_7AccountEEE
libKTpCommonInternals.so.9:_ZN3KTp15WalletInterface16removeAllEntriesERKN2Tp9SharedPtrINS1_7AccountEEE
libKTpCommonInternals.so.9:_ZN3KTp15WalletInterface18setLastLoginFailedERKN2Tp9SharedPtrINS1_7AccountEEEb
libKTpCommonInternals.so.9:_ZN3KTp15WalletInterface5entryERKN2Tp9SharedPtrINS1_7AccountEEERK7QString
libKTpCommonInternals.so.9:_ZN3KTp15WalletInterface6isOpenEv
libKTpCommonInternals.so.9:_ZN3KTp15WalletInterface8hasEntryERKN2Tp9SharedPtrINS1_7AccountEEERK7QString
libKTpCommonInternals.so.9:_ZN3KTp15WalletInterface8passwordERKN2Tp9SharedPtrINS1_7AccountEEE
libKTpCommonInternals.so.9:_ZN3KTp15WalletInterface8setEntryERKN2Tp9SharedPtrINS1_7AccountEEERK7QStringS9_
libKTpCommonInternals.so.9:_ZN3KTp15WalletInterfaceC1Ev
libKTpCommonInternals.so.9:_ZN3KTp15WalletInterfaceC2Ev
libKTpCommonInternals.so.9:_ZN3KTp15WalletInterfaceD0Ev
libKTpCommonInternals.so.9:_ZN3KTp15WalletInterfaceD1Ev
libKTpCommonInternals.so.9:_ZN3KTp15WalletInterfaceD2Ev
libKTpCommonInternals.so.9:_ZN3KTp16MessageProcessor11qt_metacallEN11QMetaObject4CallEiPPv
libKTpCommonInternals.so.9:_ZN3KTp16MessageProcessor11qt_metacastEPKc
libKTpCommonInternals.so.9:_ZN3KTp16MessageProcessor22processIncomingMessageENS_7MessageERKNS_14MessageContextE
libKTpCommonInternals.so.9:_ZN3KTp16MessageProcessor22processIncomingMessageERKN2Tp15ReceivedMessageERKNS1_9SharedPtrINS1_7AccountEEERKNS5_INS1_11TextChannelEEE
libKTpCommonInternals.so.9:_ZN3KTp16MessageProcessor22processIncomingMessageERKN2Tp7MessageERKNS1_9SharedPtrINS1_7AccountEEERKNS5_INS1_11TextChannelEEE
libKTpCommonInternals.so.9:_ZN3KTp16MessageProcessor22processOutgoingMessageERK7QStringRKN2Tp9SharedPtrINS4_7AccountEEERKNS5_INS4_11TextChannelEEE
libKTpCommonInternals.so.9:_ZN3KTp16MessageProcessor6headerEv
libKTpCommonInternals.so.9:_ZN3KTp16MessageProcessor7Private10loadFilterERK11KPluginInfo
libKTpCommonInternals.so.9:_ZN3KTp16MessageProcessor7Private11loadFiltersEv
libKTpCommonInternals.so.9:_ZN3KTp16MessageProcessor7Private12unloadFilterERK11KPluginInfo
libKTpCommonInternals.so.9:_ZN3KTp16MessageProcessor8instanceEv
libKTpCommonInternals.so.9:_ZN3KTp16MessageProcessorC1Ev
libKTpCommonInternals.so.9:_ZN3KTp16MessageProcessorC2Ev
libKTpCommonInternals.so.9:_ZN3KTp16MessageProcessorD0Ev
libKTpCommonInternals.so.9:_ZN3KTp16MessageProcessorD1Ev
libKTpCommonInternals.so.9:_ZN3KTp16MessageProcessorD2Ev
libKTpCommonInternals.so.9:_ZN3KTp17CircularCountdown10paintEventEP11QPaintEvent
libKTpCommonInternals.so.9:_ZN3KTp17CircularCountdown11qt_metacallEN11QMetaObject4CallEiPPv
libKTpCommonInternals.so.9:_ZN3KTp17CircularCountdown11qt_metacastEPKc
libKTpCommonInternals.so.9:_ZN3KTp17CircularCountdown11setDurationEi
libKTpCommonInternals.so.9:_ZN3KTp17CircularCountdown4stopEv
libKTpCommonInternals.so.9:_ZN3KTp17CircularCountdown5pauseEv
libKTpCommonInternals.so.9:_ZN3KTp17CircularCountdown5startEv
libKTpCommonInternals.so.9:_ZN3KTp17CircularCountdown6resumeEv
libKTpCommonInternals.so.9:_ZN3KTp17CircularCountdown7timeoutEv
libKTpCommonInternals.so.9:_ZN3KTp17CircularCountdownC1EiP7QWidget
libKTpCommonInternals.so.9:_ZN3KTp17CircularCountdownC2EiP7QWidget
libKTpCommonInternals.so.9:_ZN3KTp17CircularCountdownD0Ev
libKTpCommonInternals.so.9:_ZN3KTp17CircularCountdownD1Ev
libKTpCommonInternals.so.9:_ZN3KTp17CircularCountdownD2Ev
libKTpCommonInternals.so.9:_ZN3KTp17PersistentContact11qt_metacallEN11QMetaObject4CallEiPPv
libKTpCommonInternals.so.9:_ZN3KTp17PersistentContact11qt_metacastEPKc
libKTpCommonInternals.so.9:_ZN3KTp17PersistentContact14contactChangedEN2Tp9SharedPtrINS_7ContactEEE
libKTpCommonInternals.so.9:_ZN3KTp17PersistentContact14onAccountReadyEPN2Tp16PendingOperationE
libKTpCommonInternals.so.9:_ZN3KTp17PersistentContact16onContactInvalidEv
libKTpCommonInternals.so.9:_ZN3KTp17PersistentContact17setAccountManagerERKN2Tp9SharedPtrINS1_14AccountManagerEEE
libKTpCommonInternals.so.9:_ZN3KTp17PersistentContact25onPendingContactsFinishedEPN2Tp16PendingOperationE
libKTpCommonInternals.so.9:_ZN3KTp17PersistentContact26onAccountConnectionChangedERKN2Tp9SharedPtrINS1_10ConnectionEEE
libKTpCommonInternals.so.9:_ZN3KTp17PersistentContact6createERK7QStringS3_
libKTpCommonInternals.so.9:_ZN3KTp17PersistentContactC1ERK7QStringS3_
libKTpCommonInternals.so.9:_ZN3KTp17PersistentContactC2ERK7QStringS3_
libKTpCommonInternals.so.9:_ZN3KTp17PersistentContactD0Ev
libKTpCommonInternals.so.9:_ZN3KTp17PersistentContactD1Ev
libKTpCommonInternals.so.9:_ZN3KTp17PersistentContactD2Ev
libKTpCommonInternals.so.9:_ZN3KTp17connectionFactoryEv
libKTpCommonInternals.so.9:_ZN3KTp20GlobalContactManager11qt_metacallEN11QMetaObject4CallEiPPv
libKTpCommonInternals.so.9:_ZN3KTp20GlobalContactManager11qt_metacastEPKc
libKTpCommonInternals.so.9:_ZN3KTp20GlobalContactManager12onNewAccountERKN2Tp9SharedPtrINS1_7AccountEEE
libKTpCommonInternals.so.9:_ZN3KTp20GlobalContactManager17onConnectionReadyEPN2Tp16PendingOperationE
libKTpCommonInternals.so.9:_ZN3KTp20GlobalContactManager19contactForContactIdERK7QStringS3_
libKTpCommonInternals.so.9:_ZN3KTp20GlobalContactManager19onConnectionChangedERKN2Tp9SharedPtrINS1_10ConnectionEEE
libKTpCommonInternals.so.9:_ZN3KTp20GlobalContactManager21onAccountManagerReadyEPN2Tp16PendingOperationE
libKTpCommonInternals.so.9:_ZN3KTp20GlobalContactManager23allKnownContactsChangedERK4QSetIN2Tp9SharedPtrINS2_7ContactEEEES8_
libKTpCommonInternals.so.9:_ZN3KTp20GlobalContactManager28onContactManagerStateChangedEN2Tp16ContactListStateE
libKTpCommonInternals.so.9:_ZN3KTp20GlobalContactManager28onContactManagerStateChangedERKN2Tp9SharedPtrINS1_14ContactManagerEEENS1_16ContactListStateE
libKTpCommonInternals.so.9:_ZN3KTp20GlobalContactManager28presencePublicationRequestedE4QSetIN2Tp9SharedPtrINS2_7ContactEEEE
libKTpCommonInternals.so.9:_ZN3KTp20GlobalContactManagerC1ERKN2Tp9SharedPtrINS1_14AccountManagerEEEP7QObject
libKTpCommonInternals.so.9:_ZN3KTp20GlobalContactManagerC2ERKN2Tp9SharedPtrINS1_14AccountManagerEEEP7QObject
libKTpCommonInternals.so.9:_ZN3KTp20GlobalContactManagerD0Ev
libKTpCommonInternals.so.9:_ZN3KTp20GlobalContactManagerD1Ev
libKTpCommonInternals.so.9:_ZN3KTp20GlobalContactManagerD2Ev
libKTpCommonInternals.so.9:_ZN3KTp21AbstractMessageFilter11qt_metacallEN11QMetaObject4CallEiPPv
libKTpCommonInternals.so.9:_ZN3KTp21AbstractMessageFilter11qt_metacastEPKc
libKTpCommonInternals.so.9:_ZN3KTp21AbstractMessageFilter13filterMessageERNS_7MessageERKNS_14MessageContextE
libKTpCommonInternals.so.9:_ZN3KTp21AbstractMessageFilter15requiredScriptsEv
libKTpCommonInternals.so.9:_ZN3KTp21AbstractMessageFilter19requiredStylesheetsEv
libKTpCommonInternals.so.9:_ZN3KTp21AbstractMessageFilter21filterOutgoingMessageERNS_15OutgoingMessageERKNS_14MessageContextE
libKTpCommonInternals.so.9:_ZN3KTp21AbstractMessageFilterC1EP7QObject
libKTpCommonInternals.so.9:_ZN3KTp21AbstractMessageFilterC2EP7QObject
libKTpCommonInternals.so.9:_ZN3KTp21AbstractMessageFilterD0Ev
libKTpCommonInternals.so.9:_ZN3KTp21AbstractMessageFilterD1Ev
libKTpCommonInternals.so.9:_ZN3KTp21AbstractMessageFilterD2Ev
libKTpCommonInternals.so.9:_ZN3KTp26MessageFilterConfigManager12reloadConfigEv
libKTpCommonInternals.so.9:_ZN3KTp26MessageFilterConfigManager4selfEv
libKTpCommonInternals.so.9:_ZN3KTp26MessageFilterConfigManager7Private13generateCacheEv
libKTpCommonInternals.so.9:_ZN3KTp26MessageFilterConfigManagerC1Ev
libKTpCommonInternals.so.9:_ZN3KTp26MessageFilterConfigManagerC2Ev
libKTpCommonInternals.so.9:_ZN3KTp26MessageFilterConfigManagerD1Ev
libKTpCommonInternals.so.9:_ZN3KTp26MessageFilterConfigManagerD2Ev
libKTpCommonInternals.so.9:_ZN3KTp26ServiceAvailabilityChecker10introspectEv
libKTpCommonInternals.so.9:_ZN3KTp26ServiceAvailabilityChecker11qt_metacallEN11QMetaObject4CallEiPPv
libKTpCommonInternals.so.9:_ZN3KTp26ServiceAvailabilityChecker11qt_metacastEPKc
libKTpCommonInternals.so.9:_ZN3KTp26ServiceAvailabilityChecker14onCallFinishedEP23QDBusPendingCallWatcher
libKTpCommonInternals.so.9:_ZN3KTp26ServiceAvailabilityChecker21onServiceOwnerChangedERK7QStringS3_S3_
libKTpCommonInternals.so.9:_ZN3KTp26ServiceAvailabilityCheckerC1ERK7QStringP7QObject
libKTpCommonInternals.so.9:_ZN3KTp26ServiceAvailabilityCheckerC2ERK7QStringP7QObject
libKTpCommonInternals.so.9:_ZN3KTp26ServiceAvailabilityCheckerD0Ev
libKTpCommonInternals.so.9:_ZN3KTp26ServiceAvailabilityCheckerD1Ev
libKTpCommonInternals.so.9:_ZN3KTp26ServiceAvailabilityCheckerD2Ev
libKTpCommonInternals.so.9:_ZN3KTp27TelepathyHandlerApplication11jobFinishedEv
libKTpCommonInternals.so.9:_ZN3KTp27TelepathyHandlerApplication11qt_metacallEN11QMetaObject4CallEiPPv
libKTpCommonInternals.so.9:_ZN3KTp27TelepathyHandlerApplication11qt_metacastEPKc
libKTpCommonInternals.so.9:_ZN3KTp27TelepathyHandlerApplication6newJobEv
libKTpCommonInternals.so.9:_ZN3KTp27TelepathyHandlerApplication7Private12_k_onTimeoutEv
libKTpCommonInternals.so.9:_ZN3KTp27TelepathyHandlerApplication7Private19_k_onInitialTimeoutEv
libKTpCommonInternals.so.9:_ZN3KTp27TelepathyHandlerApplication7Private4initEii
libKTpCommonInternals.so.9:_ZN3KTp27TelepathyHandlerApplication7PrivateC1EPS0_
libKTpCommonInternals.so.9:_ZN3KTp27TelepathyHandlerApplication7PrivateC2EPS0_
libKTpCommonInternals.so.9:_ZN3KTp27TelepathyHandlerApplication7PrivateD1Ev
libKTpCommonInternals.so.9:_ZN3KTp27TelepathyHandlerApplication7PrivateD2Ev
libKTpCommonInternals.so.9:_ZN3KTp27TelepathyHandlerApplicationC1ERiPPcii
libKTpCommonInternals.so.9:_ZN3KTp27TelepathyHandlerApplicationC2ERiPPcii
libKTpCommonInternals.so.9:_ZN3KTp27TelepathyHandlerApplicationD0Ev
libKTpCommonInternals.so.9:_ZN3KTp27TelepathyHandlerApplicationD1Ev
libKTpCommonInternals.so.9:_ZN3KTp27TelepathyHandlerApplicationD2Ev
libKTpCommonInternals.so.9:_ZN3KTp5Debug15installCallbackEbb
libKTpCommonInternals.so.9:_ZN3KTp7Actions13openLogViewerERK4QUrl
libKTpCommonInternals.so.9:_ZN3KTp7Actions13openLogViewerERKN2Tp9SharedPtrINS1_7AccountEEERK7QString
libKTpCommonInternals.so.9:_ZN3KTp7Actions13openLogViewerERKN2Tp9SharedPtrINS1_7AccountEEERKNS2_INS1_7ContactEEE
libKTpCommonInternals.so.9:_ZN3KTp7Actions14startAudioCallERKN2Tp9SharedPtrINS1_7AccountEEERKNS2_INS1_7ContactEEE
libKTpCommonInternals.so.9:_ZN3KTp7Actions14startGroupChatERKN2Tp9SharedPtrINS1_7AccountEEERK7QString
libKTpCommonInternals.so.9:_ZN3KTp7Actions17startFileTransferERKN2Tp9SharedPtrINS1_7AccountEEERKNS2_INS1_7ContactEEERK4QUrl
libKTpCommonInternals.so.9:_ZN3KTp7Actions17startFileTransferERKN2Tp9SharedPtrINS1_7AccountEEERKNS2_INS1_7ContactEEERK7QString
libKTpCommonInternals.so.9:_ZN3KTp7Actions19startAudioVideoCallERKN2Tp9SharedPtrINS1_7AccountEEERKNS2_INS1_7ContactEEE
libKTpCommonInternals.so.9:_ZN3KTp7Actions19startDesktopSharingERKN2Tp9SharedPtrINS1_7AccountEEERKNS2_INS1_7ContactEEE
libKTpCommonInternals.so.9:_ZN3KTp7Actions25startCollaborativeEditingERKN2Tp9SharedPtrINS1_7AccountEEERK7QStringRK5QListI4QUrlEb
libKTpCommonInternals.so.9:_ZN3KTp7Actions25startCollaborativeEditingERKN2Tp9SharedPtrINS1_7AccountEEERKNS2_INS1_7ContactEEERK5QListI4QUrlEb
libKTpCommonInternals.so.9:_ZN3KTp7Actions9startChatERKN2Tp9SharedPtrINS1_7AccountEEERK7QStringb
libKTpCommonInternals.so.9:_ZN3KTp7Actions9startChatERKN2Tp9SharedPtrINS1_7AccountEEERKNS2_INS1_7ContactEEEb
libKTpCommonInternals.so.9:_ZN3KTp7Contact11invalidatedEv
libKTpCommonInternals.so.9:_ZN3KTp7Contact11qt_metacallEN11QMetaObject4CallEiPPv
libKTpCommonInternals.so.9:_ZN3KTp7Contact11qt_metacastEPKc
libKTpCommonInternals.so.9:_ZN3KTp7Contact12avatarPixmapEv
libKTpCommonInternals.so.9:_ZN3KTp7Contact12avatarToGrayER7QPixmap
libKTpCommonInternals.so.9:_ZN3KTp7Contact15buildAvatarPathERK7QString
libKTpCommonInternals.so.9:_ZN3KTp7Contact17getCommonElementsERK11QStringListS3_
libKTpCommonInternals.so.9:_ZN3KTp7Contact17onPresenceChangedERKN2Tp8PresenceE
libKTpCommonInternals.so.9:_ZN3KTp7Contact21invalidateAvatarCacheEv
libKTpCommonInternals.so.9:_ZN3KTp7ContactC1EPN2Tp14ContactManagerERKNS1_17ReferencedHandlesERKNS1_8FeaturesERK4QMapI7QString8QVariantE
libKTpCommonInternals.so.9:_ZN3KTp7ContactC2EPN2Tp14ContactManagerERKNS1_17ReferencedHandlesERKNS1_8FeaturesERK4QMapI7QString8QVariantE
libKTpCommonInternals.so.9:_ZN3KTp7Message11setPropertyEPKcRK8QVariant
libKTpCommonInternals.so.9:_ZN3KTp7Message12appendScriptERK7QString
libKTpCommonInternals.so.9:_ZN3KTp7Message17appendMessagePartERK7QString
libKTpCommonInternals.so.9:_ZN3KTp7Message18setMainMessagePartERK7QString
libKTpCommonInternals.so.9:_ZN3KTp7MessageC1EPNS0_7PrivateE
libKTpCommonInternals.so.9:_ZN3KTp7MessageC1ERKN2Tp15ReceivedMessageERKNS_14MessageContextE
libKTpCommonInternals.so.9:_ZN3KTp7MessageC1ERKN2Tp7MessageERKNS_14MessageContextE
libKTpCommonInternals.so.9:_ZN3KTp7MessageC1ERKS0_
libKTpCommonInternals.so.9:_ZN3KTp7MessageC2EPNS0_7PrivateE
libKTpCommonInternals.so.9:_ZN3KTp7MessageC2ERKN2Tp15ReceivedMessageERKNS_14MessageContextE
libKTpCommonInternals.so.9:_ZN3KTp7MessageC2ERKN2Tp7MessageERKNS_14MessageContextE
libKTpCommonInternals.so.9:_ZN3KTp7MessageC2ERKS0_
libKTpCommonInternals.so.9:_ZN3KTp7MessageD0Ev
libKTpCommonInternals.so.9:_ZN3KTp7MessageD1Ev
libKTpCommonInternals.so.9:_ZN3KTp7MessageD2Ev
libKTpCommonInternals.so.9:_ZN3KTp7MessageaSERKS0_
libKTpCommonInternals.so.9:_ZN3KTp8Presence12sortPriorityERKN2Tp22ConnectionPresenceTypeE
libKTpCommonInternals.so.9:_ZN3KTp8PresenceC1ERKN2Tp8PresenceE
libKTpCommonInternals.so.9:_ZN3KTp8PresenceC1Ev
libKTpCommonInternals.so.9:_ZN3KTp8PresenceC2ERKN2Tp8PresenceE
libKTpCommonInternals.so.9:_ZN3KTp8PresenceC2Ev
libKTpCommonInternals.so.9:_ZNK3KTp12LogsImporter10metaObjectEv
libKTpCommonInternals.so.9:_ZNK3KTp12LogsImporter7Private10metaObjectEv
libKTpCommonInternals.so.9:_ZNK3KTp12LogsImporter7Private14findKopeteLogsERK7QString
libKTpCommonInternals.so.9:_ZNK3KTp12LogsImporter7Private15parseKopeteTimeERK11QDomElement
libKTpCommonInternals.so.9:_ZNK3KTp12LogsImporter7Private19accountIdToProtocolERK7QString
libKTpCommonInternals.so.9:_ZNK3KTp12LogsImporter7Private22accountIdToAccountNameERK7QString
libKTpCommonInternals.so.9:_ZNK3KTp13PendingWallet10metaObjectEv
libKTpCommonInternals.so.9:_ZNK3KTp13PendingWallet15walletInterfaceEv
libKTpCommonInternals.so.9:_ZNK3KTp14ContactFactory9constructEPN2Tp14ContactManagerERKNS1_17ReferencedHandlesERKNS1_8FeaturesERK4QMapI7QString8QVariantE
libKTpCommonInternals.so.9:_ZNK3KTp14GlobalPresence10metaObjectEv
libKTpCommonInternals.so.9:_ZNK3KTp14GlobalPresence14accountManagerEv
libKTpCommonInternals.so.9:_ZNK3KTp14GlobalPresence14globalPresenceEv
libKTpCommonInternals.so.9:_ZNK3KTp14GlobalPresence14onlineAccountsEv
libKTpCommonInternals.so.9:_ZNK3KTp14GlobalPresence15currentPresenceEv
libKTpCommonInternals.so.9:_ZNK3KTp14GlobalPresence15enabledAccountsEv
libKTpCommonInternals.so.9:_ZNK3KTp14GlobalPresence16connectionStatusEv
libKTpCommonInternals.so.9:_ZNK3KTp14GlobalPresence17requestedPresenceEv
libKTpCommonInternals.so.9:_ZNK3KTp14GlobalPresence18hasConnectionErrorEv
libKTpCommonInternals.so.9:_ZNK3KTp14GlobalPresence18hasEnabledAccountsEv
libKTpCommonInternals.so.9:_ZNK3KTp14GlobalPresence18isChangingPresenceEv
libKTpCommonInternals.so.9:_ZNK3KTp14GlobalPresence19currentPresenceIconEv
libKTpCommonInternals.so.9:_ZNK3KTp14GlobalPresence19currentPresenceNameEv
libKTpCommonInternals.so.9:_ZNK3KTp14GlobalPresence19currentPresenceTypeEv
libKTpCommonInternals.so.9:_ZNK3KTp14GlobalPresence21requestedPresenceNameEv
libKTpCommonInternals.so.9:_ZNK3KTp14GlobalPresence22currentPresenceMessageEv
libKTpCommonInternals.so.9:_ZNK3KTp14GlobalPresence23currentPresenceIconNameEv
libKTpCommonInternals.so.9:_ZNK3KTp14MessageContext7accountEv
libKTpCommonInternals.so.9:_ZNK3KTp14MessageContext7channelEv
libKTpCommonInternals.so.9:_ZNK3KTp15OutgoingMessage4textEv
libKTpCommonInternals.so.9:_ZNK3KTp15OutgoingMessage4typeEv
libKTpCommonInternals.so.9:_ZNK3KTp15WalletInterface6walletEv
libKTpCommonInternals.so.9:_ZNK3KTp16MessageProcessor10metaObjectEv
libKTpCommonInternals.so.9:_ZNK3KTp17CircularCountdown10metaObjectEv
libKTpCommonInternals.so.9:_ZNK3KTp17CircularCountdown8durationEv
libKTpCommonInternals.so.9:_ZNK3KTp17CircularCountdown8sizeHintEv
libKTpCommonInternals.so.9:_ZNK3KTp17PersistentContact10metaObjectEv
libKTpCommonInternals.so.9:_ZNK3KTp17PersistentContact7accountEv
libKTpCommonInternals.so.9:_ZNK3KTp17PersistentContact7contactEv
libKTpCommonInternals.so.9:_ZNK3KTp17PersistentContact9accountIdEv
libKTpCommonInternals.so.9:_ZNK3KTp17PersistentContact9contactIdEv
libKTpCommonInternals.so.9:_ZNK3KTp20GlobalContactManager10metaObjectEv
libKTpCommonInternals.so.9:_ZNK3KTp20GlobalContactManager16allKnownContactsEv
libKTpCommonInternals.so.9:_ZNK3KTp20GlobalContactManager17accountForContactERKN2Tp9SharedPtrINS1_7ContactEEE
libKTpCommonInternals.so.9:_ZNK3KTp20GlobalContactManager19accountForAccountIdERK7QString
libKTpCommonInternals.so.9:_ZNK3KTp20GlobalContactManager20accountForConnectionERKN2Tp9SharedPtrINS1_10ConnectionEEE
libKTpCommonInternals.so.9:_ZNK3KTp20GlobalContactManager21accountForAccountPathERK7QString
libKTpCommonInternals.so.9:_ZNK3KTp21AbstractMessageFilter10metaObjectEv
libKTpCommonInternals.so.9:_ZNK3KTp26MessageFilterConfigManager10allPluginsEv
libKTpCommonInternals.so.9:_ZNK3KTp26MessageFilterConfigManager11configGroupEv
libKTpCommonInternals.so.9:_ZNK3KTp26MessageFilterConfigManager12sharedConfigEv
libKTpCommonInternals.so.9:_ZNK3KTp26MessageFilterConfigManager14enabledPluginsEv
libKTpCommonInternals.so.9:_ZNK3KTp26MessageFilterConfigManager7Private6offersEv
libKTpCommonInternals.so.9:_ZNK3KTp26ServiceAvailabilityChecker10metaObjectEv
libKTpCommonInternals.so.9:_ZNK3KTp26ServiceAvailabilityChecker11isAvailableEv
libKTpCommonInternals.so.9:_ZNK3KTp27TelepathyHandlerApplication10metaObjectEv
libKTpCommonInternals.so.9:_ZNK3KTp7Contact10metaObjectEv
libKTpCommonInternals.so.9:_ZNK3KTp7Contact11clientTypesEv
libKTpCommonInternals.so.9:_ZNK3KTp7Contact18textChatCapabilityEv
libKTpCommonInternals.so.9:_ZNK3KTp7Contact19audioCallCapabilityEv
libKTpCommonInternals.so.9:_ZNK3KTp7Contact19videoCallCapabilityEv
libKTpCommonInternals.so.9:_ZNK3KTp7Contact22fileTransferCapabilityEv
libKTpCommonInternals.so.9:_ZNK3KTp7Contact23accountUniqueIdentifierEv
libKTpCommonInternals.so.9:_ZNK3KTp7Contact26dbusTubeServicesCapabilityEv
libKTpCommonInternals.so.9:_ZNK3KTp7Contact28streamTubeServicesCapabilityEv
libKTpCommonInternals.so.9:_ZNK3KTp7Contact30collaborativeEditingCapabilityEv
libKTpCommonInternals.so.9:_ZNK3KTp7Contact3uriEv
libKTpCommonInternals.so.9:_ZNK3KTp7Contact8keyCacheEv
libKTpCommonInternals.so.9:_ZNK3KTp7Contact8presenceEv
libKTpCommonInternals.so.9:_ZNK3KTp7Message11senderAliasEv
libKTpCommonInternals.so.9:_ZNK3KTp7Message15finalizedScriptEv
libKTpCommonInternals.so.9:_ZNK3KTp7Message15mainMessagePartEv
libKTpCommonInternals.so.9:_ZNK3KTp7Message16finalizedMessageEv
libKTpCommonInternals.so.9:_ZNK3KTp7Message4timeEv
libKTpCommonInternals.so.9:_ZNK3KTp7Message4typeEv
libKTpCommonInternals.so.9:_ZNK3KTp7Message5tokenEv
libKTpCommonInternals.so.9:_ZNK3KTp7Message6senderEv
libKTpCommonInternals.so.9:_ZNK3KTp7Message8propertyEPKc
libKTpCommonInternals.so.9:_ZNK3KTp7Message8senderIdEv
libKTpCommonInternals.so.9:_ZNK3KTp7Message9directionEv
libKTpCommonInternals.so.9:_ZNK3KTp7Message9isHistoryEv
libKTpCommonInternals.so.9:_ZNK3KTp7Message9partsSizeEv
libKTpCommonInternals.so.9:_ZNK3KTp8Presence13displayStringEv
libKTpCommonInternals.so.9:_ZNK3KTp8Presence4iconE11QStringListb
libKTpCommonInternals.so.9:_ZNK3KTp8Presence4iconEb
libKTpCommonInternals.so.9:_ZNK3KTp8Presence8iconNameEb
libKTpCommonInternals.so.9:_ZNK3KTp8PresenceeqERKS0_
libKTpCommonInternals.so.9:_ZNK3KTp8PresencegtERKS0_
libKTpCommonInternals.so.9:_ZNK3KTp8PresenceltERKS0_
libKTpCommonInternals.so.9:_ZNK3KTp8PresenceneERKS0_
libKTpCommonInternals.so.9:_ZThn16_N3KTp17CircularCountdownD0Ev
libKTpCommonInternals.so.9:_ZThn16_N3KTp17CircularCountdownD1Ev
libKTpCommonInternals.so.9:_ZThn16_N3KTp17PersistentContactD0Ev
libKTpCommonInternals.so.9:_ZThn16_N3KTp17PersistentContactD1Ev
libKTpLogger.so.9:_ZN17ScrollbackManager11qt_metacallEN11QMetaObject4CallEiPPv
libKTpLogger.so.9:_ZN17ScrollbackManager11qt_metacastEPKc
libKTpLogger.so.9:_ZN17ScrollbackManager12fetchHistoryEi
libKTpLogger.so.9:_ZN17ScrollbackManager14setTextChannelERKN2Tp9SharedPtrINS0_7AccountEEERKNS1_INS0_11TextChannelEEE
libKTpLogger.so.9:_ZN17ScrollbackManager15fetchScrollbackEv
libKTpLogger.so.9:_ZN17ScrollbackManager15onDatesFinishedEPN3KTp22PendingLoggerOperationE
libKTpLogger.so.9:_ZN17ScrollbackManager16onEventsFinishedEPN3KTp22PendingLoggerOperationE
libKTpLogger.so.9:_ZN17ScrollbackManager19setScrollbackLengthEi
libKTpLogger.so.9:_ZN17ScrollbackManager7fetchedERK5QListIN3KTp7MessageEE
libKTpLogger.so.9:_ZN17ScrollbackManagerC1EP7QObject
libKTpLogger.so.9:_ZN17ScrollbackManagerC2EP7QObject
libKTpLogger.so.9:_ZN17ScrollbackManagerD0Ev
libKTpLogger.so.9:_ZN17ScrollbackManagerD1Ev
libKTpLogger.so.9:_ZN17ScrollbackManagerD2Ev
libKTpLogger.so.9:_ZN3KTp10LogManager10queryDatesERKN2Tp9SharedPtrINS1_7AccountEEERKNS_9LogEntityE
libKTpLogger.so.9:_ZN3KTp10LogManager11qt_metacallEN11QMetaObject4CallEiPPv
libKTpLogger.so.9:_ZN3KTp10LogManager11qt_metacastEPKc
libKTpLogger.so.9:_ZN3KTp10LogManager13queryEntitiesERKN2Tp9SharedPtrINS1_7AccountEEE
libKTpLogger.so.9:_ZN3KTp10LogManager16clearAccountLogsERKN2Tp9SharedPtrINS1_7AccountEEE
libKTpLogger.so.9:_ZN3KTp10LogManager16clearContactLogsERKN2Tp9SharedPtrINS1_7AccountEEERKNS_9LogEntityE
libKTpLogger.so.9:_ZN3KTp10LogManager17setAccountManagerERKN2Tp9SharedPtrINS1_14AccountManagerEEE
libKTpLogger.so.9:_ZN3KTp10LogManager6searchERK7QString
libKTpLogger.so.9:_ZN3KTp10LogManager7Private11loadPluginsEv
libKTpLogger.so.9:_ZN3KTp10LogManager7PrivateC1EPS0_
libKTpLogger.so.9:_ZN3KTp10LogManager7PrivateC2EPS0_
libKTpLogger.so.9:_ZN3KTp10LogManager8instanceEv
libKTpLogger.so.9:_ZN3KTp10LogManager9logsExistERKN2Tp9SharedPtrINS1_7AccountEEERKNS_9LogEntityE
libKTpLogger.so.9:_ZN3KTp10LogManager9queryLogsERKN2Tp9SharedPtrINS1_7AccountEEERKNS_9LogEntityERK5QDate
libKTpLogger.so.9:_ZN3KTp10LogManagerC1Ev
libKTpLogger.so.9:_ZN3KTp10LogManagerC2Ev
libKTpLogger.so.9:_ZN3KTp10LogManagerD0Ev
libKTpLogger.so.9:_ZN3KTp10LogManagerD1Ev
libKTpLogger.so.9:_ZN3KTp10LogManagerD2Ev
libKTpLogger.so.9:_ZN3KTp10LogMessageC1ERKNS_9LogEntityERKN2Tp9SharedPtrINS4_7AccountEEERK9QDateTimeRK7QStringSF_
libKTpLogger.so.9:_ZN3KTp10LogMessageC1ERKS0_
libKTpLogger.so.9:_ZN3KTp10LogMessageC2ERKNS_9LogEntityERKN2Tp9SharedPtrINS4_7AccountEEERK9QDateTimeRK7QStringSF_
libKTpLogger.so.9:_ZN3KTp10LogMessageC2ERKS0_
libKTpLogger.so.9:_ZN3KTp10LogMessageD0Ev
libKTpLogger.so.9:_ZN3KTp10LogMessageD1Ev
libKTpLogger.so.9:_ZN3KTp10LogMessageD2Ev
libKTpLogger.so.9:_ZN3KTp12LogSearchHitC1ERKN2Tp9SharedPtrINS1_7AccountEEERKNS_9LogEntityERK5QDate
libKTpLogger.so.9:_ZN3KTp12LogSearchHitC1ERKS0_
libKTpLogger.so.9:_ZN3KTp12LogSearchHitC2ERKN2Tp9SharedPtrINS1_7AccountEEERKNS_9LogEntityERK5QDate
libKTpLogger.so.9:_ZN3KTp12LogSearchHitC2ERKS0_
libKTpLogger.so.9:_ZN3KTp12LogSearchHitD1Ev
libKTpLogger.so.9:_ZN3KTp12LogSearchHitD2Ev
libKTpLogger.so.9:_ZN3KTp12LogSearchHitaSERKS0_
libKTpLogger.so.9:_ZN3KTp17PendingLoggerLogs10appendLogsERK5QListINS_10LogMessageEE
libKTpLogger.so.9:_ZN3KTp17PendingLoggerLogs11qt_metacallEN11QMetaObject4CallEiPPv
libKTpLogger.so.9:_ZN3KTp17PendingLoggerLogs11qt_metacastEPKc
libKTpLogger.so.9:_ZN3KTp17PendingLoggerLogsC1ERKN2Tp9SharedPtrINS1_7AccountEEERKNS_9LogEntityERK5QDateP7QObject
libKTpLogger.so.9:_ZN3KTp17PendingLoggerLogsC2ERKN2Tp9SharedPtrINS1_7AccountEEERKNS_9LogEntityERK5QDateP7QObject
libKTpLogger.so.9:_ZN3KTp17PendingLoggerLogsD0Ev
libKTpLogger.so.9:_ZN3KTp17PendingLoggerLogsD1Ev
libKTpLogger.so.9:_ZN3KTp17PendingLoggerLogsD2Ev
libKTpLogger.so.9:_ZN3KTp18PendingLoggerDates11qt_metacallEN11QMetaObject4CallEiPPv
libKTpLogger.so.9:_ZN3KTp18PendingLoggerDates11qt_metacastEPKc
libKTpLogger.so.9:_ZN3KTp18PendingLoggerDates8setDatesERK5QListI5QDateE
libKTpLogger.so.9:_ZN3KTp18PendingLoggerDatesC1ERKN2Tp9SharedPtrINS1_7AccountEEERKNS_9LogEntityEP7QObject
libKTpLogger.so.9:_ZN3KTp18PendingLoggerDatesC2ERKN2Tp9SharedPtrINS1_7AccountEEERKNS_9LogEntityEP7QObject
libKTpLogger.so.9:_ZN3KTp18PendingLoggerDatesD0Ev
libKTpLogger.so.9:_ZN3KTp18PendingLoggerDatesD1Ev
libKTpLogger.so.9:_ZN3KTp18PendingLoggerDatesD2Ev
libKTpLogger.so.9:_ZN3KTp19PendingLoggerSearch11qt_metacallEN11QMetaObject4CallEiPPv
libKTpLogger.so.9:_ZN3KTp19PendingLoggerSearch11qt_metacastEPKc
libKTpLogger.so.9:_ZN3KTp19PendingLoggerSearch15appendSearchHitERKNS_12LogSearchHitE
libKTpLogger.so.9:_ZN3KTp19PendingLoggerSearch16appendSearchHitsERK5QListINS_12LogSearchHitEE
libKTpLogger.so.9:_ZN3KTp19PendingLoggerSearchC1ERK7QStringP7QObject
libKTpLogger.so.9:_ZN3KTp19PendingLoggerSearchC2ERK7QStringP7QObject
libKTpLogger.so.9:_ZN3KTp19PendingLoggerSearchD0Ev
libKTpLogger.so.9:_ZN3KTp19PendingLoggerSearchD1Ev
libKTpLogger.so.9:_ZN3KTp19PendingLoggerSearchD2Ev
libKTpLogger.so.9:_ZN3KTp20AbstractLoggerPlugin11qt_metacallEN11QMetaObject4CallEiPPv
libKTpLogger.so.9:_ZN3KTp20AbstractLoggerPlugin11qt_metacastEPKc
libKTpLogger.so.9:_ZN3KTp20AbstractLoggerPlugin14handlesAccountERKN2Tp9SharedPtrINS1_7AccountEEE
libKTpLogger.so.9:_ZN3KTp20AbstractLoggerPlugin17setAccountManagerERKN2Tp9SharedPtrINS1_14AccountManagerEEE
libKTpLogger.so.9:_ZN3KTp20AbstractLoggerPluginC1EP7QObject
libKTpLogger.so.9:_ZN3KTp20AbstractLoggerPluginC2EP7QObject
libKTpLogger.so.9:_ZN3KTp20AbstractLoggerPluginD0Ev
libKTpLogger.so.9:_ZN3KTp20AbstractLoggerPluginD1Ev
libKTpLogger.so.9:_ZN3KTp20AbstractLoggerPluginD2Ev
libKTpLogger.so.9:_ZN3KTp21PendingLoggerEntities11qt_metacallEN11QMetaObject4CallEiPPv
libKTpLogger.so.9:_ZN3KTp21PendingLoggerEntities11qt_metacastEPKc
libKTpLogger.so.9:_ZN3KTp21PendingLoggerEntities12appendEntityERKNS_9LogEntityE
libKTpLogger.so.9:_ZN3KTp21PendingLoggerEntities14appendEntitiesERK5QListINS_9LogEntityEE
libKTpLogger.so.9:_ZN3KTp21PendingLoggerEntitiesC1ERKN2Tp9SharedPtrINS1_7AccountEEEP7QObject
libKTpLogger.so.9:_ZN3KTp21PendingLoggerEntitiesC2ERKN2Tp9SharedPtrINS1_7AccountEEEP7QObject
libKTpLogger.so.9:_ZN3KTp21PendingLoggerEntitiesD0Ev
libKTpLogger.so.9:_ZN3KTp21PendingLoggerEntitiesD1Ev
libKTpLogger.so.9:_ZN3KTp21PendingLoggerEntitiesD2Ev
libKTpLogger.so.9:_ZN3KTp22PendingLoggerOperation11qt_metacallEN11QMetaObject4CallEiPPv
libKTpLogger.so.9:_ZN3KTp22PendingLoggerOperation11qt_metacastEPKc
libKTpLogger.so.9:_ZN3KTp22PendingLoggerOperation12emitFinishedEv
libKTpLogger.so.9:_ZN3KTp22PendingLoggerOperation7Private19__k__doEmitFinishedEv
libKTpLogger.so.9:_ZN3KTp22PendingLoggerOperation7PrivateC1EPS0_
libKTpLogger.so.9:_ZN3KTp22PendingLoggerOperation7PrivateC2EPS0_
libKTpLogger.so.9:_ZN3KTp22PendingLoggerOperation8finishedEPS0_
libKTpLogger.so.9:_ZN3KTp22PendingLoggerOperation8setErrorERK7QString
libKTpLogger.so.9:_ZN3KTp22PendingLoggerOperationC1EP7QObject
libKTpLogger.so.9:_ZN3KTp22PendingLoggerOperationC2EP7QObject
libKTpLogger.so.9:_ZN3KTp22PendingLoggerOperationD0Ev
libKTpLogger.so.9:_ZN3KTp22PendingLoggerOperationD1Ev
libKTpLogger.so.9:_ZN3KTp22PendingLoggerOperationD2Ev
libKTpLogger.so.9:_ZN3KTp9LogEntityC1EN2Tp10HandleTypeERK7QStringS5_
libKTpLogger.so.9:_ZN3KTp9LogEntityC1ERKS0_
libKTpLogger.so.9:_ZN3KTp9LogEntityC1Ev
libKTpLogger.so.9:_ZN3KTp9LogEntityC2EN2Tp10HandleTypeERK7QStringS5_
libKTpLogger.so.9:_ZN3KTp9LogEntityC2ERKS0_
libKTpLogger.so.9:_ZN3KTp9LogEntityC2Ev
libKTpLogger.so.9:_ZN3KTp9LogEntityD1Ev
libKTpLogger.so.9:_ZN3KTp9LogEntityD2Ev
libKTpLogger.so.9:_ZN3KTp9LogEntityaSERKS0_
libKTpLogger.so.9:_ZN3KTp9LogEntityeqERKS0_
libKTpLogger.so.9:_ZN3KTp9LogEntityneERKS0_
libKTpLogger.so.9:_ZNK17ScrollbackManager10metaObjectEv
libKTpLogger.so.9:_ZNK17ScrollbackManager16scrollbackLengthEv
libKTpLogger.so.9:_ZNK17ScrollbackManager6existsEv
libKTpLogger.so.9:_ZNK3KTp10LogManager10metaObjectEv
libKTpLogger.so.9:_ZNK3KTp10LogManager14accountManagerEv
libKTpLogger.so.9:_ZNK3KTp12LogSearchHit4dateEv
libKTpLogger.so.9:_ZNK3KTp12LogSearchHit6entityEv
libKTpLogger.so.9:_ZNK3KTp12LogSearchHit7accountEv
libKTpLogger.so.9:_ZNK3KTp17PendingLoggerLogs10metaObjectEv
libKTpLogger.so.9:_ZNK3KTp17PendingLoggerLogs4dateEv
libKTpLogger.so.9:_ZNK3KTp17PendingLoggerLogs4logsEv
libKTpLogger.so.9:_ZNK3KTp17PendingLoggerLogs6entityEv
libKTpLogger.so.9:_ZNK3KTp17PendingLoggerLogs7accountEv
libKTpLogger.so.9:_ZNK3KTp18PendingLoggerDates10metaObjectEv
libKTpLogger.so.9:_ZNK3KTp18PendingLoggerDates5datesEv
libKTpLogger.so.9:_ZNK3KTp18PendingLoggerDates6entityEv
libKTpLogger.so.9:_ZNK3KTp18PendingLoggerDates7accountEv
libKTpLogger.so.9:_ZNK3KTp19PendingLoggerSearch10metaObjectEv
libKTpLogger.so.9:_ZNK3KTp19PendingLoggerSearch10searchHitsEv
libKTpLogger.so.9:_ZNK3KTp19PendingLoggerSearch4termEv
libKTpLogger.so.9:_ZNK3KTp20AbstractLoggerPlugin10metaObjectEv
libKTpLogger.so.9:_ZNK3KTp20AbstractLoggerPlugin14accountManagerEv
libKTpLogger.so.9:_ZNK3KTp21PendingLoggerEntities10metaObjectEv
libKTpLogger.so.9:_ZNK3KTp21PendingLoggerEntities7accountEv
libKTpLogger.so.9:_ZNK3KTp21PendingLoggerEntities8entitiesEv
libKTpLogger.so.9:_ZNK3KTp22PendingLoggerOperation10metaObjectEv
libKTpLogger.so.9:_ZNK3KTp22PendingLoggerOperation5errorEv
libKTpLogger.so.9:_ZNK3KTp22PendingLoggerOperation7pluginsEv
libKTpLogger.so.9:_ZNK3KTp22PendingLoggerOperation8hasErrorEv
libKTpLogger.so.9:_ZNK3KTp9LogEntity10entityTypeEv
libKTpLogger.so.9:_ZNK3KTp9LogEntity2idEv
libKTpLogger.so.9:_ZNK3KTp9LogEntity5aliasEv
libKTpLogger.so.9:_ZNK3KTp9LogEntity7isValidEv
libKTpModels.so.9:_ZN23KPeopleTranslationProxy11qt_metacallEN11QMetaObject4CallEiPPv
libKTpModels.so.9:_ZN23KPeopleTranslationProxy11qt_metacastEPKc
libKTpModels.so.9:_ZN23KPeopleTranslationProxyC1EP7QObject
libKTpModels.so.9:_ZN23KPeopleTranslationProxyC2EP7QObject
libKTpModels.so.9:_ZN23KPeopleTranslationProxyD0Ev
libKTpModels.so.9:_ZN23KPeopleTranslationProxyD1Ev
libKTpModels.so.9:_ZN23KPeopleTranslationProxyD2Ev
libKTpModels.so.9:_ZN3KTp10RoomsModel11qt_metacallEN11QMetaObject4CallEiPPv
libKTpModels.so.9:_ZN3KTp10RoomsModel11qt_metacastEPKc
libKTpModels.so.9:_ZN3KTp10RoomsModel17clearRoomInfoListEv
libKTpModels.so.9:_ZN3KTp10RoomsModel8addRoomsE5QListIN2Tp8RoomInfoEE
libKTpModels.so.9:_ZN3KTp10RoomsModelC1EP7QObject
libKTpModels.so.9:_ZN3KTp10RoomsModelC2EP7QObject
libKTpModels.so.9:_ZN3KTp13ContactsModel11qt_metacallEN11QMetaObject4CallEiPPv
libKTpModels.so.9:_ZN3KTp13ContactsModel11qt_metacastEPKc
libKTpModels.so.9:_ZN3KTp13ContactsModel12setGroupModeENS0_9GroupModeE
libKTpModels.so.9:_ZN3KTp13ContactsModel16groupModeChangedEv
libKTpModels.so.9:_ZN3KTp13ContactsModel16modelInitializedEb
libKTpModels.so.9:_ZN3KTp13ContactsModel17setAccountManagerERKN2Tp9SharedPtrINS1_14AccountManagerEEE
libKTpModels.so.9:_ZN3KTp13ContactsModel22setTrackUnreadMessagesEb
libKTpModels.so.9:_ZN3KTp13ContactsModel22updateGroupProxyModelsEv
libKTpModels.so.9:_ZN3KTp13ContactsModel26trackUnreadMessagesChangedEv
libKTpModels.so.9:_ZN3KTp13ContactsModelC1EP7QObject
libKTpModels.so.9:_ZN3KTp13ContactsModelC2EP7QObject
libKTpModels.so.9:_ZN3KTp13ContactsModelD0Ev
libKTpModels.so.9:_ZN3KTp13ContactsModelD1Ev
libKTpModels.so.9:_ZN3KTp13ContactsModelD2Ev
libKTpModels.so.9:_ZN3KTp13PresenceModel11addPresenceERKNS_8PresenceE
libKTpModels.so.9:_ZN3KTp13PresenceModel11modifyModelERKNS_8PresenceE
libKTpModels.so.9:_ZN3KTp13PresenceModel11qt_metacallEN11QMetaObject4CallEiPPv
libKTpModels.so.9:_ZN3KTp13PresenceModel11qt_metacastEPKc
libKTpModels.so.9:_ZN3KTp13PresenceModel13loadPresencesEv
libKTpModels.so.9:_ZN3KTp13PresenceModel14removePresenceERKNS_8PresenceE
libKTpModels.so.9:_ZN3KTp13PresenceModel15propagateChangeERKNS_8PresenceE
libKTpModels.so.9:_ZN3KTp13PresenceModel17propagationChangeE5QListI8QVariantE
libKTpModels.so.9:_ZN3KTp13PresenceModel19loadCustomPresencesEv
libKTpModels.so.9:_ZN3KTp13PresenceModel20loadDefaultPresencesEv
libKTpModels.so.9:_ZN3KTp13PresenceModel25syncCustomPresencesToDiskEv
libKTpModels.so.9:_ZN3KTp13PresenceModelC1EP7QObject
libKTpModels.so.9:_ZN3KTp13PresenceModelC2EP7QObject
libKTpModels.so.9:_ZN3KTp13PresenceModelD0Ev
libKTpModels.so.9:_ZN3KTp13PresenceModelD1Ev
libKTpModels.so.9:_ZN3KTp13PresenceModelD2Ev
libKTpModels.so.9:_ZN3KTp17AccountsListModel11qt_metacallEN11QMetaObject4CallEiPPv
libKTpModels.so.9:_ZN3KTp17AccountsListModel11qt_metacastEPKc
libKTpModels.so.9:_ZN3KTp17AccountsListModel13setAccountSetERKN2Tp9SharedPtrINS1_10AccountSetEEE
libKTpModels.so.9:_ZN3KTp17AccountsListModel14onAccountAddedERKN2Tp9SharedPtrINS1_7AccountEEE
libKTpModels.so.9:_ZN3KTp17AccountsListModel16onAccountRemovedERKN2Tp9SharedPtrINS1_7AccountEEE
libKTpModels.so.9:_ZN3KTp17AccountsListModel16onAccountUpdatedEv
libKTpModels.so.9:_ZN3KTp17AccountsListModel7Private11qt_metacallEN11QMetaObject4CallEiPPv
libKTpModels.so.9:_ZN3KTp17AccountsListModel7Private11qt_metacastEPKc
libKTpModels.so.9:_ZN3KTp17AccountsListModel7Private25statusHandlerStatusChangeERK7QString
libKTpModels.so.9:_ZN3KTp17AccountsListModel7setDataERK11QModelIndexRK8QVarianti
libKTpModels.so.9:_ZN3KTp17AccountsListModelC1EP7QObject
libKTpModels.so.9:_ZN3KTp17AccountsListModelC2EP7QObject
libKTpModels.so.9:_ZN3KTp17AccountsListModelD0Ev
libKTpModels.so.9:_ZN3KTp17AccountsListModelD1Ev
libKTpModels.so.9:_ZN3KTp17AccountsListModelD2Ev
libKTpModels.so.9:_ZN3KTp17ContactsListModel11qt_metacallEN11QMetaObject4CallEiPPv
libKTpModels.so.9:_ZN3KTp17ContactsListModel11qt_metacastEPKc
libKTpModels.so.9:_ZN3KTp17ContactsListModel16modelInitializedEb
libKTpModels.so.9:_ZN3KTp17ContactsListModel17onContactsChangedERK4QSetIN2Tp9SharedPtrINS2_7ContactEEEES8_
libKTpModels.so.9:_ZN3KTp17ContactsListModel17setAccountManagerERKN2Tp9SharedPtrINS1_14AccountManagerEEE
libKTpModels.so.9:_ZN3KTp17ContactsListModel19onConnectionDroppedEv
libKTpModels.so.9:_ZN3KTp17ContactsListModel9onChangedEv
libKTpModels.so.9:_ZN3KTp17ContactsListModelC1EP7QObject
libKTpModels.so.9:_ZN3KTp17ContactsListModelC2EP7QObject
libKTpModels.so.9:_ZN3KTp17ContactsListModelD0Ev
libKTpModels.so.9:_ZN3KTp17ContactsListModelD1Ev
libKTpModels.so.9:_ZN3KTp17ContactsListModelD2Ev
libKTpModels.so.9:_ZN3KTp18FavoriteRoomsModel10clearRoomsEv
libKTpModels.so.9:_ZN3KTp18FavoriteRoomsModel10removeRoomERK4QMapI7QString8QVariantE
libKTpModels.so.9:_ZN3KTp18FavoriteRoomsModel11qt_metacallEN11QMetaObject4CallEiPPv
libKTpModels.so.9:_ZN3KTp18FavoriteRoomsModel11qt_metacastEPKc
libKTpModels.so.9:_ZN3KTp18FavoriteRoomsModel7addRoomERK4QMapI7QString8QVariantE
libKTpModels.so.9:_ZN3KTp18FavoriteRoomsModel7setDataERK11QModelIndexRK8QVarianti
libKTpModels.so.9:_ZN3KTp18FavoriteRoomsModel8addRoomsE5QListI4QMapI7QString8QVariantEE
libKTpModels.so.9:_ZN3KTp18FavoriteRoomsModelC1EP7QObject
libKTpModels.so.9:_ZN3KTp18FavoriteRoomsModelC2EP7QObject
libKTpModels.so.9:_ZN3KTp19ContactsFilterModel11qt_metacallEN11QMetaObject4CallEiPPv
libKTpModels.so.9:_ZN3KTp19ContactsFilterModel11qt_metacastEPKc
libKTpModels.so.9:_ZN3KTp19ContactsFilterModel14setSourceModelEP18QAbstractItemModel
libKTpModels.so.9:_ZN3KTp19ContactsFilterModel16invalidateFilterEv
libKTpModels.so.9:_ZN3KTp19ContactsFilterModel16setAccountFilterERKN2Tp9SharedPtrINS1_7AccountEEE
libKTpModels.so.9:_ZN3KTp19ContactsFilterModel17setIdFilterStringERK7QString
libKTpModels.so.9:_ZN3KTp19ContactsFilterModel17setSortRoleStringERK7QString
libKTpModels.so.9:_ZN3KTp19ContactsFilterModel18clearAccountFilterEv
libKTpModels.so.9:_ZN3KTp19ContactsFilterModel19clearIdFilterStringEv
libKTpModels.so.9:_ZN3KTp19ContactsFilterModel20accountFilterChangedERKN2Tp9SharedPtrINS1_7AccountEEE
libKTpModels.so.9:_ZN3KTp19ContactsFilterModel20setAliasFilterStringERK7QString
libKTpModels.so.9:_ZN3KTp19ContactsFilterModel21idFilterStringChangedERK7QString
libKTpModels.so.9:_ZN3KTp19ContactsFilterModel21setGlobalFilterStringERK7QString
libKTpModels.so.9:_ZN3KTp19ContactsFilterModel21setGroupsFilterStringERK7QString
libKTpModels.so.9:_ZN3KTp19ContactsFilterModel21setIdFilterMatchFlagsE6QFlagsIN2Qt9MatchFlagEE
libKTpModels.so.9:_ZN3KTp19ContactsFilterModel21setTubesFilterStringsERK11QStringList
libKTpModels.so.9:_ZN3KTp19ContactsFilterModel22clearAliasFilterStringEv
libKTpModels.so.9:_ZN3KTp19ContactsFilterModel23clearGlobalFilterStringEv
libKTpModels.so.9:_ZN3KTp19ContactsFilterModel23clearGroupsFilterStringEv
libKTpModels.so.9:_ZN3KTp19ContactsFilterModel23clearTubesFilterStringsEv
libKTpModels.so.9:_ZN3KTp19ContactsFilterModel23resetIdFilterMatchFlagsEv
libKTpModels.so.9:_ZN3KTp19ContactsFilterModel23setNicknameFilterStringERK7QString
libKTpModels.so.9:_ZN3KTp19ContactsFilterModel24aliasFilterStringChangedERK7QString
libKTpModels.so.9:_ZN3KTp19ContactsFilterModel24setAliasFilterMatchFlagsE6QFlagsIN2Qt9MatchFlagEE
libKTpModels.so.9:_ZN3KTp19ContactsFilterModel24setCapabilityFilterFlagsE6QFlagsINS0_20CapabilityFilterFlagEE
libKTpModels.so.9:_ZN3KTp19ContactsFilterModel25clearNicknameFilterStringEv
libKTpModels.so.9:_ZN3KTp19ContactsFilterModel25globalFilterStringChangedERK7QString
libKTpModels.so.9:_ZN3KTp19ContactsFilterModel25groupsFilterStringChangedERK7QString
libKTpModels.so.9:_ZN3KTp19ContactsFilterModel25idFilterMatchFlagsChangedE6QFlagsIN2Qt9MatchFlagEE
libKTpModels.so.9:_ZN3KTp19ContactsFilterModel25setGlobalFilterMatchFlagsE6QFlagsIN2Qt9MatchFlagEE
libKTpModels.so.9:_ZN3KTp19ContactsFilterModel25setGroupsFilterMatchFlagsE6QFlagsIN2Qt9MatchFlagEE
libKTpModels.so.9:_ZN3KTp19ContactsFilterModel25tubesFilterStringsChangedERK11QStringList
libKTpModels.so.9:_ZN3KTp19ContactsFilterModel26clearCapabilityFilterFlagsEv
libKTpModels.so.9:_ZN3KTp19ContactsFilterModel26resetAliasFilterMatchFlagsEv
libKTpModels.so.9:_ZN3KTp19ContactsFilterModel26setDisplayNameFilterStringERK7QString
libKTpModels.so.9:_ZN3KTp19ContactsFilterModel26setPresenceTypeFilterFlagsE6QFlagsINS0_22PresenceTypeFilterFlagEE
libKTpModels.so.9:_ZN3KTp19ContactsFilterModel27nicknameFilterStringChangedERK7QString
libKTpModels.so.9:_ZN3KTp19ContactsFilterModel27resetGlobalFilterMatchFlagsEv
libKTpModels.so.9:_ZN3KTp19ContactsFilterModel27resetGroupsFilterMatchFlagsEv
libKTpModels.so.9:_ZN3KTp19ContactsFilterModel27setNicknameFilterMatchFlagsE6QFlagsIN2Qt9MatchFlagEE
libKTpModels.so.9:_ZN3KTp19ContactsFilterModel28aliasFilterMatchFlagsChangedE6QFlagsIN2Qt9MatchFlagEE
libKTpModels.so.9:_ZN3KTp19ContactsFilterModel28capabilityFilterFlagsChangedE6QFlagsINS0_20CapabilityFilterFlagEE
libKTpModels.so.9:_ZN3KTp19ContactsFilterModel28clearDisplayNameFilterStringEv
libKTpModels.so.9:_ZN3KTp19ContactsFilterModel28clearPresenceTypeFilterFlagsEv
libKTpModels.so.9:_ZN3KTp19ContactsFilterModel29globalFilterMatchFlagsChangedE6QFlagsIN2Qt9MatchFlagEE
libKTpModels.so.9:_ZN3KTp19ContactsFilterModel29groupsFilterMatchFlagsChangedE6QFlagsIN2Qt9MatchFlagEE
libKTpModels.so.9:_ZN3KTp19ContactsFilterModel29resetNicknameFilterMatchFlagsEv
libKTpModels.so.9:_ZN3KTp19ContactsFilterModel30displayNameFilterStringChangedERK7QString
libKTpModels.so.9:_ZN3KTp19ContactsFilterModel30presenceTypeFilterFlagsChangedE6QFlagsINS0_22PresenceTypeFilterFlagEE
libKTpModels.so.9:_ZN3KTp19ContactsFilterModel30setDisplayNameFilterMatchFlagsE6QFlagsIN2Qt9MatchFlagEE
libKTpModels.so.9:_ZN3KTp19ContactsFilterModel31nicknameFilterMatchFlagsChangedE6QFlagsIN2Qt9MatchFlagEE
libKTpModels.so.9:_ZN3KTp19ContactsFilterModel31setSubscriptionStateFilterFlagsE6QFlagsINS0_27SubscriptionStateFilterFlagEE
libKTpModels.so.9:_ZN3KTp19ContactsFilterModel32resetDisplayNameFilterMatchFlagsEv
libKTpModels.so.9:_ZN3KTp19ContactsFilterModel33clearSubscriptionStateFilterFlagsEv
libKTpModels.so.9:_ZN3KTp19ContactsFilterModel34displayNameFilterMatchFlagsChangedE6QFlagsIN2Qt9MatchFlagEE
libKTpModels.so.9:_ZN3KTp19ContactsFilterModel35subscriptionStateFilterFlagsChangedE6QFlagsINS0_27SubscriptionStateFilterFlagEE
libKTpModels.so.9:_ZN3KTp19ContactsFilterModel7Private18filterAcceptsGroupERK11QModelIndex
libKTpModels.so.9:_ZN3KTp19ContactsFilterModel7Private23sourceModelIndexChangedERK11QModelIndex
libKTpModels.so.9:_ZN3KTp19ContactsFilterModel7Private29sourceModelParentIndexChangedERK11QModelIndex
libKTpModels.so.9:_ZN3KTp19ContactsFilterModelC1EP7QObject
libKTpModels.so.9:_ZN3KTp19ContactsFilterModelC2EP7QObject
libKTpModels.so.9:_ZN3KTp19ContactsFilterModelD0Ev
libKTpModels.so.9:_ZN3KTp19ContactsFilterModelD1Ev
libKTpModels.so.9:_ZN3KTp19ContactsFilterModelD2Ev
libKTpModels.so.9:_ZN3KTp20GroupsTreeProxyModel11qt_metacallEN11QMetaObject4CallEiPPv
libKTpModels.so.9:_ZN3KTp20GroupsTreeProxyModel11qt_metacastEPKc
libKTpModels.so.9:_ZN3KTp20GroupsTreeProxyModelC1EP18QAbstractItemModel
libKTpModels.so.9:_ZN3KTp20GroupsTreeProxyModelC2EP18QAbstractItemModel
libKTpModels.so.9:_ZN3KTp20GroupsTreeProxyModelD0Ev
libKTpModels.so.9:_ZN3KTp20GroupsTreeProxyModelD1Ev
libKTpModels.so.9:_ZN3KTp20GroupsTreeProxyModelD2Ev
libKTpModels.so.9:_ZN3KTp22AccountsTreeProxyModel11qt_metacallEN11QMetaObject4CallEiPPv
libKTpModels.so.9:_ZN3KTp22AccountsTreeProxyModel11qt_metacastEPKc
libKTpModels.so.9:_ZN3KTp22AccountsTreeProxyModel14onAccountAddedERKN2Tp9SharedPtrINS1_7AccountEEE
libKTpModels.so.9:_ZN3KTp22AccountsTreeProxyModel16onAccountChangedEv
libKTpModels.so.9:_ZN3KTp22AccountsTreeProxyModel16onAccountRemovedERKN2Tp9SharedPtrINS1_7AccountEEE
libKTpModels.so.9:_ZN3KTp22AccountsTreeProxyModelC1EP18QAbstractItemModelRKN2Tp9SharedPtrINS3_14AccountManagerEEE
libKTpModels.so.9:_ZN3KTp22AccountsTreeProxyModelC2EP18QAbstractItemModelRKN2Tp9SharedPtrINS3_14AccountManagerEEE
libKTpModels.so.9:_ZN3KTp22AccountsTreeProxyModelD0Ev
libKTpModels.so.9:_ZN3KTp22AccountsTreeProxyModelD1Ev
libKTpModels.so.9:_ZN3KTp22AccountsTreeProxyModelD2Ev
libKTpModels.so.9:_ZN3KTp26AbstractGroupingProxyModel10forceGroupERK7QString
libKTpModels.so.9:_ZN3KTp26AbstractGroupingProxyModel11qt_metacallEN11QMetaObject4CallEiPPv
libKTpModels.so.9:_ZN3KTp26AbstractGroupingProxyModel11qt_metacastEPKc
libKTpModels.so.9:_ZN3KTp26AbstractGroupingProxyModel12addProxyNodeERK11QModelIndexP13QStandardItem
libKTpModels.so.9:_ZN3KTp26AbstractGroupingProxyModel12groupChangedERK7QString
libKTpModels.so.9:_ZN3KTp26AbstractGroupingProxyModel12itemForGroupERK7QString
libKTpModels.so.9:_ZN3KTp26AbstractGroupingProxyModel12onModelResetEv
libKTpModels.so.9:_ZN3KTp26AbstractGroupingProxyModel12unforceGroupERK7QString
libKTpModels.so.9:_ZN3KTp26AbstractGroupingProxyModel13onDataChangedERK11QModelIndexS3_
libKTpModels.so.9:_ZN3KTp26AbstractGroupingProxyModel13onRowsRemovedERK11QModelIndexii
libKTpModels.so.9:_ZN3KTp26AbstractGroupingProxyModel14onRowsInsertedERK11QModelIndexii
libKTpModels.so.9:_ZN3KTp26AbstractGroupingProxyModel16removeProxyNodesERK11QModelIndexRK5QListIP9ProxyNodeE
libKTpModels.so.9:_ZN3KTp26AbstractGroupingProxyModel6onLoadEv
libKTpModels.so.9:_ZN3KTp26AbstractGroupingProxyModelC1EP18QAbstractItemModel
libKTpModels.so.9:_ZN3KTp26AbstractGroupingProxyModelC2EP18QAbstractItemModel
libKTpModels.so.9:_ZN3KTp26AbstractGroupingProxyModelD0Ev
libKTpModels.so.9:_ZN3KTp26AbstractGroupingProxyModelD1Ev
libKTpModels.so.9:_ZN3KTp26AbstractGroupingProxyModelD2Ev
libKTpModels.so.9:_ZN3KTp28TextChannelWatcherProxyModel11qt_metacallEN11QMetaObject4CallEiPPv
libKTpModels.so.9:_ZN3KTp28TextChannelWatcherProxyModel11qt_metacastEPKc
libKTpModels.so.9:_ZN3KTp28TextChannelWatcherProxyModel15observeChannelsERKN2Tp26MethodInvocationContextPtrINS1_28MethodInvocationContextTypes3NilES4_S4_S4_S4_S4_S4_S4_EERKNS1_9SharedPtrINS1_7AccountEEERKNS8_INS1_10ConnectionEEERK5QListINS8_INS1_7ChannelEEEERKNS8_INS1_24ChannelDispatchOperationEEERKSH_INS8_INS1_14ChannelRequestEEEERKNS1_22AbstractClientObserver12ObserverInfoE
libKTpModels.so.9:_ZN3KTp28TextChannelWatcherProxyModel20onChannelInvalidatedEv
libKTpModels.so.9:_ZN3KTp28TextChannelWatcherProxyModel24onChannelMessagesChangedEv
libKTpModels.so.9:_ZN3KTp28TextChannelWatcherProxyModelC1EP7QObject
libKTpModels.so.9:_ZN3KTp28TextChannelWatcherProxyModelC2EP7QObject
libKTpModels.so.9:_ZN3KTp28TextChannelWatcherProxyModelD0Ev
libKTpModels.so.9:_ZN3KTp28TextChannelWatcherProxyModelD1Ev
libKTpModels.so.9:_ZN3KTp28TextChannelWatcherProxyModelD2Ev
libKTpModels.so.9:_ZNK23KPeopleTranslationProxy10metaObjectEv
libKTpModels.so.9:_ZNK23KPeopleTranslationProxy13contactPixmapERK11QModelIndex
libKTpModels.so.9:_ZNK23KPeopleTranslationProxy16filterAcceptsRowEiRK11QModelIndex
libKTpModels.so.9:_ZNK23KPeopleTranslationProxy17dataForKTpContactERK7QStringS2_i
libKTpModels.so.9:_ZNK23KPeopleTranslationProxy17translatePresenceERK8QVariant
libKTpModels.so.9:_ZNK23KPeopleTranslationProxy4dataERK11QModelIndexi
libKTpModels.so.9:_ZNK3KTp10RoomsModel10headerDataEiN2Qt11OrientationEi
libKTpModels.so.9:_ZNK3KTp10RoomsModel10metaObjectEv
libKTpModels.so.9:_ZNK3KTp10RoomsModel11columnCountERK11QModelIndex
libKTpModels.so.9:_ZNK3KTp10RoomsModel4dataERK11QModelIndexi
libKTpModels.so.9:_ZNK3KTp10RoomsModel8rowCountERK11QModelIndex
libKTpModels.so.9:_ZNK3KTp13ContactsModel10metaObjectEv
libKTpModels.so.9:_ZNK3KTp13ContactsModel14accountManagerEv
libKTpModels.so.9:_ZNK3KTp13ContactsModel19trackUnreadMessagesEv
libKTpModels.so.9:_ZNK3KTp13ContactsModel9groupModeEv
libKTpModels.so.9:_ZNK3KTp13ContactsModel9roleNamesEv
libKTpModels.so.9:_ZNK3KTp13PresenceModel10metaObjectEv
libKTpModels.so.9:_ZNK3KTp13PresenceModel3getEiRK10QByteArray
libKTpModels.so.9:_ZNK3KTp13PresenceModel4dataERK11QModelIndexi
libKTpModels.so.9:_ZNK3KTp13PresenceModel5matchERK11QModelIndexiRK8QVarianti6QFlagsIN2Qt9MatchFlagEE
libKTpModels.so.9:_ZNK3KTp13PresenceModel8rowCountERK11QModelIndex
libKTpModels.so.9:_ZNK3KTp13PresenceModel9roleNamesEv
libKTpModels.so.9:_ZNK3KTp17AccountsListModel10metaObjectEv
libKTpModels.so.9:_ZNK3KTp17AccountsListModel19connectionStateIconERKN2Tp9SharedPtrINS1_7AccountEEE
libKTpModels.so.9:_ZNK3KTp17AccountsListModel21connectionStateStringERKN2Tp9SharedPtrINS1_7AccountEEE
libKTpModels.so.9:_ZNK3KTp17AccountsListModel22connectionStatusReasonERKN2Tp9SharedPtrINS1_7AccountEEE
libKTpModels.so.9:_ZNK3KTp17AccountsListModel3getEiRK10QByteArray
libKTpModels.so.9:_ZNK3KTp17AccountsListModel4dataERK11QModelIndexi
libKTpModels.so.9:_ZNK3KTp17AccountsListModel7Private10metaObjectEv
libKTpModels.so.9:_ZNK3KTp17AccountsListModel8rowCountERK11QModelIndex
libKTpModels.so.9:_ZNK3KTp17AccountsListModel9roleNamesEv
libKTpModels.so.9:_ZNK3KTp17ContactsListModel10metaObjectEv
libKTpModels.so.9:_ZNK3KTp17ContactsListModel4dataERK11QModelIndexi
libKTpModels.so.9:_ZNK3KTp17ContactsListModel8rowCountERK11QModelIndex
libKTpModels.so.9:_ZNK3KTp18FavoriteRoomsModel10metaObjectEv
libKTpModels.so.9:_ZNK3KTp18FavoriteRoomsModel11columnCountERK11QModelIndex
libKTpModels.so.9:_ZNK3KTp18FavoriteRoomsModel12containsRoomERK7QStringS3_
libKTpModels.so.9:_ZNK3KTp18FavoriteRoomsModel15countForAccountERK7QString
libKTpModels.so.9:_ZNK3KTp18FavoriteRoomsModel4dataERK11QModelIndexi
libKTpModels.so.9:_ZNK3KTp18FavoriteRoomsModel5flagsERK11QModelIndex
libKTpModels.so.9:_ZNK3KTp18FavoriteRoomsModel8rowCountERK11QModelIndex
libKTpModels.so.9:_ZNK3KTp19ContactsFilterModel10metaObjectEv
libKTpModels.so.9:_ZNK3KTp19ContactsFilterModel13accountFilterEv
libKTpModels.so.9:_ZNK3KTp19ContactsFilterModel14idFilterStringEv
libKTpModels.so.9:_ZNK3KTp19ContactsFilterModel14sortRoleStringEv
libKTpModels.so.9:_ZNK3KTp19ContactsFilterModel16filterAcceptsRowEiRK11QModelIndex
libKTpModels.so.9:_ZNK3KTp19ContactsFilterModel17aliasFilterStringEv
libKTpModels.so.9:_ZNK3KTp19ContactsFilterModel18globalFilterStringEv
libKTpModels.so.9:_ZNK3KTp19ContactsFilterModel18groupsFilterStringEv
libKTpModels.so.9:_ZNK3KTp19ContactsFilterModel18idFilterMatchFlagsEv
libKTpModels.so.9:_ZNK3KTp19ContactsFilterModel18tubesFilterStringsEv
libKTpModels.so.9:_ZNK3KTp19ContactsFilterModel20nicknameFilterStringEv
libKTpModels.so.9:_ZNK3KTp19ContactsFilterModel21aliasFilterMatchFlagsEv
libKTpModels.so.9:_ZNK3KTp19ContactsFilterModel21capabilityFilterFlagsEv
libKTpModels.so.9:_ZNK3KTp19ContactsFilterModel22globalFilterMatchFlagsEv
libKTpModels.so.9:_ZNK3KTp19ContactsFilterModel22groupsFilterMatchFlagsEv
libKTpModels.so.9:_ZNK3KTp19ContactsFilterModel23displayNameFilterStringEv
libKTpModels.so.9:_ZNK3KTp19ContactsFilterModel23presenceTypeFilterFlagsEv
libKTpModels.so.9:_ZNK3KTp19ContactsFilterModel24nicknameFilterMatchFlagsEv
libKTpModels.so.9:_ZNK3KTp19ContactsFilterModel27displayNameFilterMatchFlagsEv
libKTpModels.so.9:_ZNK3KTp19ContactsFilterModel28subscriptionStateFilterFlagsEv
libKTpModels.so.9:_ZNK3KTp19ContactsFilterModel4dataERK11QModelIndexi
libKTpModels.so.9:_ZNK3KTp19ContactsFilterModel5matchERK11QModelIndexiRK8QVarianti6QFlagsIN2Qt9MatchFlagEE
libKTpModels.so.9:_ZNK3KTp19ContactsFilterModel7Private20filterAcceptsAccountERK11QModelIndex
libKTpModels.so.9:_ZNK3KTp19ContactsFilterModel7Private20filterAcceptsContactERK11QModelIndex
libKTpModels.so.9:_ZNK3KTp19ContactsFilterModel8lessThanERK11QModelIndexS3_
libKTpModels.so.9:_ZNK3KTp20GroupsTreeProxyModel10metaObjectEv
libKTpModels.so.9:_ZNK3KTp20GroupsTreeProxyModel12dataForGroupERK7QStringi
libKTpModels.so.9:_ZNK3KTp20GroupsTreeProxyModel14groupsForIndexERK11QModelIndex
libKTpModels.so.9:_ZNK3KTp22AccountsTreeProxyModel10metaObjectEv
libKTpModels.so.9:_ZNK3KTp22AccountsTreeProxyModel12dataForGroupERK7QStringi
libKTpModels.so.9:_ZNK3KTp22AccountsTreeProxyModel14groupsForIndexERK11QModelIndex
libKTpModels.so.9:_ZNK3KTp26AbstractGroupingProxyModel10metaObjectEv
libKTpModels.so.9:_ZNK3KTp26AbstractGroupingProxyModel9roleNamesEv
libKTpModels.so.9:_ZNK3KTp28TextChannelWatcherProxyModel10metaObjectEv
libKTpModels.so.9:_ZNK3KTp28TextChannelWatcherProxyModel4dataERK11QModelIndexi
libKTpModels.so.9:_ZThn16_N3KTp28TextChannelWatcherProxyModel15observeChannelsERKN2Tp26MethodInvocationContextPtrINS1_28MethodInvocationContextTypes3NilES4_S4_S4_S4_S4_S4_S4_EERKNS1_9SharedPtrINS1_7AccountEEERKNS8_INS1_10ConnectionEEERK5QListINS8_INS1_7ChannelEEEERKNS8_INS1_24ChannelDispatchOperationEEERKSH_INS8_INS1_14ChannelRequestEEEERKNS1_22AbstractClientObserver12ObserverInfoE
libKTpModels.so.9:_ZThn16_N3KTp28TextChannelWatcherProxyModelD0Ev
libKTpModels.so.9:_ZThn16_N3KTp28TextChannelWatcherProxyModelD1Ev
libKTpModels.so.9:_ZTv0_n24_N3KTp28TextChannelWatcherProxyModelD0Ev
libKTpModels.so.9:_ZTv0_n24_N3KTp28TextChannelWatcherProxyModelD1Ev
libKTpOTR.so.9:_ZN3KTp14ChannelAdapter10setChannelERKN2Tp9SharedPtrINS1_11TextChannelEEE
libKTpOTR.so.9:_ZN3KTp14ChannelAdapter11acknowledgeERK5QListIN2Tp15ReceivedMessageEE
libKTpOTR.so.9:_ZN3KTp14ChannelAdapter11messageSentERKN2Tp7MessageE6QFlagsINS1_18MessageSendingFlagEERK7QString
libKTpOTR.so.9:_ZN3KTp14ChannelAdapter11qt_metacallEN11QMetaObject4CallEiPPv
libKTpOTR.so.9:_ZN3KTp14ChannelAdapter11qt_metacastEPKc
libKTpOTR.so.9:_ZN3KTp14ChannelAdapter11textChannelEv
libKTpOTR.so.9:_ZN3KTp14ChannelAdapter13initializeOTREv
libKTpOTR.so.9:_ZN3KTp14ChannelAdapter13onMessageSentERK5QListIN2Tp11MessagePartEEjRK7QString
libKTpOTR.so.9:_ZN3KTp14ChannelAdapter15messageReceivedERKN2Tp15ReceivedMessageE
libKTpOTR.so.9:_ZN3KTp14ChannelAdapter15setupOTRChannelEv
libKTpOTR.so.9:_ZN3KTp14ChannelAdapter16sessionRefreshedEv
libKTpOTR.so.9:_ZN3KTp14ChannelAdapter16setupTextChannelEv
libKTpOTR.so.9:_ZN3KTp14ChannelAdapter16trustFingerprintERK7QStringb
libKTpOTR.so.9:_ZN3KTp14ChannelAdapter17onMessageReceivedERK5QListIN2Tp11MessagePartEE
libKTpOTR.so.9:_ZN3KTp14ChannelAdapter19onTrustLevelChangedEj
libKTpOTR.so.9:_ZN3KTp14ChannelAdapter20otrTrustLevelChangedENS_13OTRTrustLevelES1_
libKTpOTR.so.9:_ZN3KTp14ChannelAdapter21pendingMessageRemovedERKN2Tp15ReceivedMessageE
libKTpOTR.so.9:_ZN3KTp14ChannelAdapter23abortPeerAuthenticationEv
libKTpOTR.so.9:_ZN3KTp14ChannelAdapter23onTrustLevelPropertyGetEPN2Tp16PendingOperationE
libKTpOTR.so.9:_ZN3KTp14ChannelAdapter23peerAuthenticationErrorEv
libKTpOTR.so.9:_ZN3KTp14ChannelAdapter24onPendingMessagesRemovedERKN2Tp8UIntListE
libKTpOTR.so.9:_ZN3KTp14ChannelAdapter25peerAuthenticationAbortedEv
libKTpOTR.so.9:_ZN3KTp14ChannelAdapter25peerAuthenticationCheatedEv
libKTpOTR.so.9:_ZN3KTp14ChannelAdapter25respondPeerAuthenticationERK7QString
libKTpOTR.so.9:_ZN3KTp14ChannelAdapter25startPeerAuthenticationQAERK7QStringS3_
libKTpOTR.so.9:_ZN3KTp14ChannelAdapter25startPeerAuthenticationSSERK7QString
libKTpOTR.so.9:_ZN3KTp14ChannelAdapter27peerAuthenticationConcludedEb
libKTpOTR.so.9:_ZN3KTp14ChannelAdapter28onPendingMessagesPropertyGetEPN2Tp16PendingOperationE
libKTpOTR.so.9:_ZN3KTp14ChannelAdapter28peerAuthenticationInProgressEv
libKTpOTR.so.9:_ZN3KTp14ChannelAdapter29onPeerAuthenticationRequestedERK7QString
libKTpOTR.so.9:_ZN3KTp14ChannelAdapter29peerAuthenticationRequestedQAERK7QString
libKTpOTR.so.9:_ZN3KTp14ChannelAdapter29peerAuthenticationRequestedSSEv
libKTpOTR.so.9:_ZN3KTp14ChannelAdapter30onRemoteFingerprintPropertyGetEPN2Tp16PendingOperationE
libKTpOTR.so.9:_ZN3KTp14ChannelAdapter4sendERK7QStringN2Tp22ChannelTextMessageTypeE6QFlagsINS4_18MessageSendingFlagEE
libKTpOTR.so.9:_ZN3KTp14ChannelAdapter7stopOTREv
libKTpOTR.so.9:_ZN3KTp14ChannelAdapterC1ERKN2Tp9SharedPtrINS1_11TextChannelEEEP7QObject
libKTpOTR.so.9:_ZN3KTp14ChannelAdapterC2ERKN2Tp9SharedPtrINS1_11TextChannelEEEP7QObject
libKTpOTR.so.9:_ZN3KTp14ChannelAdapterD0Ev
libKTpOTR.so.9:_ZN3KTp14ChannelAdapterD1Ev
libKTpOTR.so.9:_ZN3KTp14ChannelAdapterD2Ev
libKTpOTR.so.9:_ZN3KTp16registerOtrTypesEv
libKTpOTR.so.9:_ZN3KTp5Utils10isOtrEventERKN2Tp15ReceivedMessageE
libKTpOTR.so.9:_ZN3KTp5Utils12isOtrMessageERK7QString
libKTpOTR.so.9:_ZN3KTp5Utils17processOtrMessageERKN2Tp15ReceivedMessageE
libKTpOTR.so.9:_ZN3KTp5Utils21getPendingMessagesIDsERK5QListIN2Tp15ReceivedMessageEE
libKTpOTR.so.9:_ZN3KTp5Utils24getOtrProxyObjectPathForERKN2Tp9SharedPtrINS1_11TextChannelEEE
libKTpOTR.so.9:_ZN3KTp5Utils5getIdERK5QListIN2Tp11MessagePartEE
libKTpOTR.so.9:_ZN3KTp6Client21ProxyServiceInterface10invalidateEPN2Tp9DBusProxyERK7QStringS7_
libKTpOTR.so.9:_ZN3KTp6Client21ProxyServiceInterface11qt_metacallEN11QMetaObject4CallEiPPv
libKTpOTR.so.9:_ZN3KTp6Client21ProxyServiceInterface11qt_metacastEPKc
libKTpOTR.so.9:_ZN3KTp6Client21ProxyServiceInterface14ProxyConnectedERK15QDBusObjectPath
libKTpOTR.so.9:_ZN3KTp6Client21ProxyServiceInterface17ProxyDisconnectedERK15QDBusObjectPath
libKTpOTR.so.9:_ZN3KTp6Client21ProxyServiceInterface20KeyGenerationStartedERK15QDBusObjectPath
libKTpOTR.so.9:_ZN3KTp6Client21ProxyServiceInterface21KeyGenerationFinishedERK15QDBusObjectPathb
libKTpOTR.so.9:_ZN3KTp6Client21ProxyServiceInterfaceC1EPN2Tp9DBusProxyE
libKTpOTR.so.9:_ZN3KTp6Client21ProxyServiceInterfaceC1ERK15QDBusConnectionRK7QStringS7_P7QObject
libKTpOTR.so.9:_ZN3KTp6Client21ProxyServiceInterfaceC1ERK7QStringS4_P7QObject
libKTpOTR.so.9:_ZN3KTp6Client21ProxyServiceInterfaceC1ERKN2Tp17AbstractInterfaceE
libKTpOTR.so.9:_ZN3KTp6Client21ProxyServiceInterfaceC1ERKN2Tp17AbstractInterfaceEP7QObject
libKTpOTR.so.9:_ZN3KTp6Client21ProxyServiceInterfaceC2EPN2Tp9DBusProxyE
libKTpOTR.so.9:_ZN3KTp6Client21ProxyServiceInterfaceC2ERK15QDBusConnectionRK7QStringS7_P7QObject
libKTpOTR.so.9:_ZN3KTp6Client21ProxyServiceInterfaceC2ERK7QStringS4_P7QObject
libKTpOTR.so.9:_ZN3KTp6Client21ProxyServiceInterfaceC2ERKN2Tp17AbstractInterfaceE
libKTpOTR.so.9:_ZN3KTp6Client21ProxyServiceInterfaceC2ERKN2Tp17AbstractInterfaceEP7QObject
libKTpOTR.so.9:_ZN3KTp6Client33ChannelProxyInterfaceOTRInterface10invalidateEPN2Tp9DBusProxyERK7QStringS7_
libKTpOTR.so.9:_ZN3KTp6Client33ChannelProxyInterfaceOTRInterface11MessageSentERK5QListIN2Tp11MessagePartEEjRK7QString
libKTpOTR.so.9:_ZN3KTp6Client33ChannelProxyInterfaceOTRInterface11qt_metacallEN11QMetaObject4CallEiPPv
libKTpOTR.so.9:_ZN3KTp6Client33ChannelProxyInterfaceOTRInterface11qt_metacastEPKc
libKTpOTR.so.9:_ZN3KTp6Client33ChannelProxyInterfaceOTRInterface15MessageReceivedERK5QListIN2Tp11MessagePartEE
libKTpOTR.so.9:_ZN3KTp6Client33ChannelProxyInterfaceOTRInterface16SessionRefreshedEv
libKTpOTR.so.9:_ZN3KTp6Client33ChannelProxyInterfaceOTRInterface17TrustLevelChangedEj
libKTpOTR.so.9:_ZN3KTp6Client33ChannelProxyInterfaceOTRInterface22PendingMessagesRemovedERKN2Tp8UIntListE
libKTpOTR.so.9:_ZN3KTp6Client33ChannelProxyInterfaceOTRInterface23PeerAuthenticationErrorEv
libKTpOTR.so.9:_ZN3KTp6Client33ChannelProxyInterfaceOTRInterface25PeerAuthenticationAbortedEv
libKTpOTR.so.9:_ZN3KTp6Client33ChannelProxyInterfaceOTRInterface25PeerAuthenticationCheatedEv
libKTpOTR.so.9:_ZN3KTp6Client33ChannelProxyInterfaceOTRInterface27PeerAuthenticationConcludedEb
libKTpOTR.so.9:_ZN3KTp6Client33ChannelProxyInterfaceOTRInterface27PeerAuthenticationRequestedERK7QString
libKTpOTR.so.9:_ZN3KTp6Client33ChannelProxyInterfaceOTRInterface28PeerAuthenticationInProgressEv
libKTpOTR.so.9:_ZN3KTp6Client33ChannelProxyInterfaceOTRInterfaceC1EPN2Tp9DBusProxyE
libKTpOTR.so.9:_ZN3KTp6Client33ChannelProxyInterfaceOTRInterfaceC1ERK15QDBusConnectionRK7QStringS7_P7QObject
libKTpOTR.so.9:_ZN3KTp6Client33ChannelProxyInterfaceOTRInterfaceC1ERK7QStringS4_P7QObject
libKTpOTR.so.9:_ZN3KTp6Client33ChannelProxyInterfaceOTRInterfaceC1ERKN2Tp17AbstractInterfaceE
libKTpOTR.so.9:_ZN3KTp6Client33ChannelProxyInterfaceOTRInterfaceC1ERKN2Tp17AbstractInterfaceEP7QObject
libKTpOTR.so.9:_ZN3KTp6Client33ChannelProxyInterfaceOTRInterfaceC2EPN2Tp9DBusProxyE
libKTpOTR.so.9:_ZN3KTp6Client33ChannelProxyInterfaceOTRInterfaceC2ERK15QDBusConnectionRK7QStringS7_P7QObject
libKTpOTR.so.9:_ZN3KTp6Client33ChannelProxyInterfaceOTRInterfaceC2ERK7QStringS4_P7QObject
libKTpOTR.so.9:_ZN3KTp6Client33ChannelProxyInterfaceOTRInterfaceC2ERKN2Tp17AbstractInterfaceE
libKTpOTR.so.9:_ZN3KTp6Client33ChannelProxyInterfaceOTRInterfaceC2ERKN2Tp17AbstractInterfaceEP7QObject
libKTpOTR.so.9:_ZN3KTpeqERKNS_15FingerprintInfoES2_
libKTpOTR.so.9:_ZN3KTplsER13QDBusArgumentRKNS_15FingerprintInfoE
libKTpOTR.so.9:_ZN3KTprsERK13QDBusArgumentRNS_15FingerprintInfoE
libKTpOTR.so.9:_ZNK3KTp14ChannelAdapter10metaObjectEv
libKTpOTR.so.9:_ZNK3KTp14ChannelAdapter12messageQueueEv
libKTpOTR.so.9:_ZNK3KTp14ChannelAdapter13isOTRsupporedEv
libKTpOTR.so.9:_ZNK3KTp14ChannelAdapter13otrTrustLevelEv
libKTpOTR.so.9:_ZNK3KTp14ChannelAdapter17remoteFingerprintEv
libKTpOTR.so.9:_ZNK3KTp14ChannelAdapter18messagePartSupportEv
libKTpOTR.so.9:_ZNK3KTp14ChannelAdapter19supportsMessageTypeEN2Tp22ChannelTextMessageTypeE
libKTpOTR.so.9:_ZNK3KTp14ChannelAdapter21supportedContentTypesEv
libKTpOTR.so.9:_ZNK3KTp14ChannelAdapter21supportedMessageTypesEv
libKTpOTR.so.9:_ZNK3KTp14ChannelAdapter24deliveryReportingSupportEv
libKTpOTR.so.9:_ZNK3KTp14ChannelAdapter7isValidEv
libKTpOTR.so.9:_ZNK3KTp6Client21ProxyServiceInterface10metaObjectEv
libKTpOTR.so.9:_ZNK3KTp6Client33ChannelProxyInterfaceOTRInterface10metaObjectEv
libKTpOTR.so.9:_ZThn16_N3KTp14ChannelAdapterD0Ev
libKTpOTR.so.9:_ZThn16_N3KTp14ChannelAdapterD1Ev
libKTpWidgets.so.9:_ZN3KTp15StartChatDialog10closeEventEP11QCloseEvent
libKTpWidgets.so.9:_ZN3KTp15StartChatDialog11qt_metacallEN11QMetaObject4CallEiPPv
libKTpWidgets.so.9:_ZN3KTp15StartChatDialog11qt_metacastEPKc
libKTpWidgets.so.9:_ZN3KTp15StartChatDialog6acceptEv
libKTpWidgets.so.9:_ZN3KTp15StartChatDialogC1ERKN2Tp9SharedPtrINS1_14AccountManagerEEEP7QWidget
libKTpWidgets.so.9:_ZN3KTp15StartChatDialogC2ERKN2Tp9SharedPtrINS1_14AccountManagerEEEP7QWidget
libKTpWidgets.so.9:_ZN3KTp15StartChatDialogD0Ev
libKTpWidgets.so.9:_ZN3KTp15StartChatDialogD1Ev
libKTpWidgets.so.9:_ZN3KTp15StartChatDialogD2Ev
libKTpWidgets.so.9:_ZN3KTp16AccountsComboBox11qt_metacallEN11QMetaObject4CallEiPPv
libKTpWidgets.so.9:_ZN3KTp16AccountsComboBox11qt_metacastEPKc
libKTpWidgets.so.9:_ZN3KTp16AccountsComboBox13setAccountSetERKN2Tp9SharedPtrINS1_10AccountSetEEE
libKTpWidgets.so.9:_ZN3KTp16AccountsComboBox14currentAccountEv
libKTpWidgets.so.9:_ZN3KTp16AccountsComboBox17setCurrentAccountERK7QString
libKTpWidgets.so.9:_ZN3KTp16AccountsComboBox17setCurrentAccountERKN2Tp9SharedPtrINS1_7AccountEEE
libKTpWidgets.so.9:_ZN3KTp16AccountsComboBoxC1EP7QWidget
libKTpWidgets.so.9:_ZN3KTp16AccountsComboBoxC2EP7QWidget
libKTpWidgets.so.9:_ZN3KTp16AccountsComboBoxD0Ev
libKTpWidgets.so.9:_ZN3KTp16AccountsComboBoxD1Ev
libKTpWidgets.so.9:_ZN3KTp16AccountsComboBoxD2Ev
libKTpWidgets.so.9:_ZN3KTp16AddContactDialog10closeEventEP11QCloseEvent
libKTpWidgets.so.9:_ZN3KTp16AddContactDialog11qt_metacallEN11QMetaObject4CallEiPPv
libKTpWidgets.so.9:_ZN3KTp16AddContactDialog11qt_metacastEPKc
libKTpWidgets.so.9:_ZN3KTp16AddContactDialog35updateSubscriptionMessageVisibilityEv
libKTpWidgets.so.9:_ZN3KTp16AddContactDialog6acceptEv
libKTpWidgets.so.9:_ZN3KTp16AddContactDialogC1ERKN2Tp9SharedPtrINS1_14AccountManagerEEEP7QWidget
libKTpWidgets.so.9:_ZN3KTp16AddContactDialogC2ERKN2Tp9SharedPtrINS1_14AccountManagerEEEP7QWidget
libKTpWidgets.so.9:_ZN3KTp16AddContactDialogD0Ev
libKTpWidgets.so.9:_ZN3KTp16AddContactDialogD1Ev
libKTpWidgets.so.9:_ZN3KTp16AddContactDialogD2Ev
libKTpWidgets.so.9:_ZN3KTp17ContactGridDialog11qt_metacallEN11QMetaObject4CallEiPPv
libKTpWidgets.so.9:_ZN3KTp17ContactGridDialog11qt_metacastEPKc
libKTpWidgets.so.9:_ZN3KTp17ContactGridDialog7Private21_k_onSelectionChangedEv
libKTpWidgets.so.9:_ZN3KTp17ContactGridDialog7Private24_k_onAccountManagerReadyEv
libKTpWidgets.so.9:_ZN3KTp17ContactGridDialog7accountEv
libKTpWidgets.so.9:_ZN3KTp17ContactGridDialog7contactEv
libKTpWidgets.so.9:_ZN3KTp17ContactGridDialogC1EP7QWidget
libKTpWidgets.so.9:_ZN3KTp17ContactGridDialogC2EP7QWidget
libKTpWidgets.so.9:_ZN3KTp17ContactGridDialogD0Ev
libKTpWidgets.so.9:_ZN3KTp17ContactGridDialogD1Ev
libKTpWidgets.so.9:_ZN3KTp17ContactGridDialogD2Ev
libKTpWidgets.so.9:_ZN3KTp17ContactGridWidget11qt_metacallEN11QMetaObject4CallEiPPv
libKTpWidgets.so.9:_ZN3KTp17ContactGridWidget11qt_metacastEPKc
libKTpWidgets.so.9:_ZN3KTp17ContactGridWidgetC1EPNS_17ContactsListModelEP7QWidget
libKTpWidgets.so.9:_ZN3KTp17ContactGridWidgetC2EPNS_17ContactsListModelEP7QWidget
libKTpWidgets.so.9:_ZN3KTp17ContactInfoDialog11qt_metacallEN11QMetaObject4CallEiPPv
libKTpWidgets.so.9:_ZN3KTp17ContactInfoDialog11qt_metacastEPKc
libKTpWidgets.so.9:_ZN3KTp17ContactInfoDialog17slotButtonClickedEP15QAbstractButton
libKTpWidgets.so.9:_ZN3KTp17ContactInfoDialog7Private10addInfoRowENS_12InfoRowIndexERK7QString
libKTpWidgets.so.9:_ZN3KTp17ContactInfoDialog7Private11addStateRowERK7QStringN2Tp7Contact13PresenceStateE
libKTpWidgets.so.9:_ZN3KTp17ContactInfoDialog7Private13loadStateRowsEv
libKTpWidgets.so.9:_ZN3KTp17ContactInfoDialog7Private17onContactUpgradedEPN2Tp16PendingOperationE
libKTpWidgets.so.9:_ZN3KTp17ContactInfoDialog7Private17onInfoDataChangedEv
libKTpWidgets.so.9:_ZN3KTp17ContactInfoDialog7Private20onFeatureRosterReadyEPN2Tp16PendingOperationE
libKTpWidgets.so.9:_ZN3KTp17ContactInfoDialog7Private21onContactInfoReceivedEPN2Tp16PendingOperationE
libKTpWidgets.so.9:_ZN3KTp17ContactInfoDialog7Private26onClearAvatarButtonClickedEv
libKTpWidgets.so.9:_ZN3KTp17ContactInfoDialog7Private27onChangeAvatarButtonClickedEv
libKTpWidgets.so.9:_ZN3KTp17ContactInfoDialogC1ERKN2Tp9SharedPtrINS1_7AccountEEERKNS2_INS1_7ContactEEEP7QWidget
libKTpWidgets.so.9:_ZN3KTp17ContactInfoDialogC2ERKN2Tp9SharedPtrINS1_7AccountEEERKNS2_INS1_7ContactEEEP7QWidget
libKTpWidgets.so.9:_ZN3KTp17ContactInfoDialogD0Ev
libKTpWidgets.so.9:_ZN3KTp17ContactInfoDialogD1Ev
libKTpWidgets.so.9:_ZN3KTp17ContactInfoDialogD2Ev
libKTpWidgets.so.9:_ZN3KTp17ContactViewWidget11qt_metacallEN11QMetaObject4CallEiPPv
libKTpWidgets.so.9:_ZN3KTp17ContactViewWidget11qt_metacastEPKc
libKTpWidgets.so.9:_ZN3KTp17ContactViewWidget11setIconSizeERK5QSize
libKTpWidgets.so.9:_ZN3KTp17ContactViewWidget11setViewModeEN9QListView8ViewModeE
libKTpWidgets.so.9:_ZN3KTp17ContactViewWidget13selectionModeEv
libKTpWidgets.so.9:_ZN3KTp17ContactViewWidget15iconSizeChangedERK5QSize
libKTpWidgets.so.9:_ZN3KTp17ContactViewWidget16selectionChangedERKN2Tp9SharedPtrINS1_7AccountEEERKNS2_INS_7ContactEEE
libKTpWidgets.so.9:_ZN3KTp17ContactViewWidget16setSelectionModeEN17QAbstractItemView13SelectionModeE
libKTpWidgets.so.9:_ZN3KTp17ContactViewWidget20contactDoubleClickedERKN2Tp9SharedPtrINS1_7AccountEEERKNS2_INS_7ContactEEE
libKTpWidgets.so.9:_ZN3KTp17ContactViewWidget20setDisplayNameFilterERK7QString
libKTpWidgets.so.9:_ZN3KTp17ContactViewWidget22clearDisplayNameFilterEv
libKTpWidgets.so.9:_ZN3KTp17ContactViewWidget24displayNameFilterChangedERK7QString
libKTpWidgets.so.9:_ZN3KTp17ContactViewWidget7Private18_k_onDoubleClickedERK11QModelIndex
libKTpWidgets.so.9:_ZN3KTp17ContactViewWidget7Private21_k_onSelectionChangedERK14QItemSelectionS4_
libKTpWidgets.so.9:_ZN3KTp17ContactViewWidgetC1EPNS_17ContactsListModelEP7QWidget
libKTpWidgets.so.9:_ZN3KTp17ContactViewWidgetC2EPNS_17ContactsListModelEP7QWidget
libKTpWidgets.so.9:_ZN3KTp17ContactViewWidgetD0Ev
libKTpWidgets.so.9:_ZN3KTp17ContactViewWidgetD1Ev
libKTpWidgets.so.9:_ZN3KTp17ContactViewWidgetD2Ev
libKTpWidgets.so.9:_ZN3KTp17SettingsKcmDialog11qt_metacallEN11QMetaObject4CallEiPPv
libKTpWidgets.so.9:_ZN3KTp17SettingsKcmDialog11qt_metacastEPKc
libKTpWidgets.so.9:_ZN3KTp17SettingsKcmDialog22addNotificationsModuleEv
libKTpWidgets.so.9:_ZN3KTp17SettingsKcmDialog24addGeneralSettingsModuleEv
libKTpWidgets.so.9:_ZN3KTp17SettingsKcmDialogC1EP7QWidget
libKTpWidgets.so.9:_ZN3KTp17SettingsKcmDialogC2EP7QWidget
libKTpWidgets.so.9:_ZN3KTp18JoinChatRoomDialog10closeEventEP11QCloseEvent
libKTpWidgets.so.9:_ZN3KTp18JoinChatRoomDialog10onGotRoomsE5QListIN2Tp8RoomInfoEE
libKTpWidgets.so.9:_ZN3KTp18JoinChatRoomDialog11getRoomListEv
libKTpWidgets.so.9:_ZN3KTp18JoinChatRoomDialog11qt_metacallEN11QMetaObject4CallEiPPv
libKTpWidgets.so.9:_ZN3KTp18JoinChatRoomDialog11qt_metacastEPKc
libKTpWidgets.so.9:_ZN3KTp18JoinChatRoomDialog11stopListingEv
libKTpWidgets.so.9:_ZN3KTp18JoinChatRoomDialog13addRecentRoomEv
libKTpWidgets.so.9:_ZN3KTp18JoinChatRoomDialog13onRoomClickedERK11QModelIndex
libKTpWidgets.so.9:_ZN3KTp18JoinChatRoomDialog13onTextChangedE7QString
libKTpWidgets.so.9:_ZN3KTp18JoinChatRoomDialog16clearRecentRoomsEv
libKTpWidgets.so.9:_ZN3KTp18JoinChatRoomDialog17loadFavoriteRoomsEv
libKTpWidgets.so.9:_ZN3KTp18JoinChatRoomDialog17setJoinInProgressEb
libKTpWidgets.so.9:_ZN3KTp18JoinChatRoomDialog19onStartChatFinishedEPN2Tp16PendingOperationE
libKTpWidgets.so.9:_ZN3KTp18JoinChatRoomDialog21onAccountManagerReadyEPN2Tp16PendingOperationE
libKTpWidgets.so.9:_ZN3KTp18JoinChatRoomDialog22onRoomListChannelReadyEPN2Tp16PendingOperationE
libKTpWidgets.so.9:_ZN3KTp18JoinChatRoomDialog22sendNotificationToUserERK7QString
libKTpWidgets.so.9:_ZN3KTp18JoinChatRoomDialog23onRoomListChannelClosedEPN2Tp16PendingOperationE
libKTpWidgets.so.9:_ZN3KTp18JoinChatRoomDialog25onAccountSelectionChangedEi
libKTpWidgets.so.9:_ZN3KTp18JoinChatRoomDialog25onFavoriteRoomDataChangedERK11QModelIndexS3_
libKTpWidgets.so.9:_ZN3KTp18JoinChatRoomDialog30onFavoriteRoomSelectionChangedERK11QModelIndexS3_
libKTpWidgets.so.9:_ZN3KTp18JoinChatRoomDialog33onRoomListChannelReadyForHandlingEPN2Tp16PendingOperationE
libKTpWidgets.so.9:_ZN3KTp18JoinChatRoomDialog6acceptEv
libKTpWidgets.so.9:_ZN3KTp18JoinChatRoomDialog9onListingEb
libKTpWidgets.so.9:_ZN3KTp18JoinChatRoomDialogC1EN2Tp9SharedPtrINS1_14AccountManagerEEEP7QWidget
libKTpWidgets.so.9:_ZN3KTp18JoinChatRoomDialogC2EN2Tp9SharedPtrINS1_14AccountManagerEEEP7QWidget
libKTpWidgets.so.9:_ZN3KTp18JoinChatRoomDialogD0Ev
libKTpWidgets.so.9:_ZN3KTp18JoinChatRoomDialogD1Ev
libKTpWidgets.so.9:_ZN3KTp18JoinChatRoomDialogD2Ev
libKTpWidgets.so.9:_ZN3KTp24NotificationConfigDialog11onOkClickedEv
libKTpWidgets.so.9:_ZN3KTp24NotificationConfigDialog11qt_metacallEN11QMetaObject4CallEiPPv
libKTpWidgets.so.9:_ZN3KTp24NotificationConfigDialog11qt_metacastEPKc
libKTpWidgets.so.9:_ZN3KTp24NotificationConfigDialog18onButtonBoxClickedEP15QAbstractButton
libKTpWidgets.so.9:_ZN3KTp24NotificationConfigDialog18updateNotifyWidgetEi
libKTpWidgets.so.9:_ZN3KTp24NotificationConfigDialog8defaultsEv
libKTpWidgets.so.9:_ZN3KTp24NotificationConfigDialogC1ERKN2Tp9SharedPtrINS1_7ContactEEEP7QWidget
libKTpWidgets.so.9:_ZN3KTp24NotificationConfigDialogC2ERKN2Tp9SharedPtrINS1_7ContactEEEP7QWidget
libKTpWidgets.so.9:_ZN3KTp24NotificationConfigDialogD0Ev
libKTpWidgets.so.9:_ZN3KTp24NotificationConfigDialogD1Ev
libKTpWidgets.so.9:_ZN3KTp24NotificationConfigDialogD2Ev
libKTpWidgets.so.9:_ZNK3KTp15StartChatDialog10metaObjectEv
libKTpWidgets.so.9:_ZNK3KTp16AccountsComboBox10metaObjectEv
libKTpWidgets.so.9:_ZNK3KTp16AddContactDialog10metaObjectEv
libKTpWidgets.so.9:_ZNK3KTp17ContactGridDialog10metaObjectEv
libKTpWidgets.so.9:_ZNK3KTp17ContactGridDialog6filterEv
libKTpWidgets.so.9:_ZNK3KTp17ContactGridWidget10metaObjectEv
libKTpWidgets.so.9:_ZNK3KTp17ContactInfoDialog10metaObjectEv
libKTpWidgets.so.9:_ZNK3KTp17ContactViewWidget10metaObjectEv
libKTpWidgets.so.9:_ZNK3KTp17ContactViewWidget12hasSelectionEv
libKTpWidgets.so.9:_ZNK3KTp17ContactViewWidget15selectedAccountEv
libKTpWidgets.so.9:_ZNK3KTp17ContactViewWidget15selectedContactEv
libKTpWidgets.so.9:_ZNK3KTp17ContactViewWidget16selectedContactsEv
libKTpWidgets.so.9:_ZNK3KTp17ContactViewWidget17displayNameFilterEv
libKTpWidgets.so.9:_ZNK3KTp17ContactViewWidget21contactFilterLineEditEv
libKTpWidgets.so.9:_ZNK3KTp17ContactViewWidget6filterEv
libKTpWidgets.so.9:_ZNK3KTp17ContactViewWidget8iconSizeEv
libKTpWidgets.so.9:_ZNK3KTp17ContactViewWidget8viewModeEv
libKTpWidgets.so.9:_ZNK3KTp17SettingsKcmDialog10metaObjectEv
libKTpWidgets.so.9:_ZNK3KTp18JoinChatRoomDialog10metaObjectEv
libKTpWidgets.so.9:_ZNK3KTp18JoinChatRoomDialog15selectedAccountEv
libKTpWidgets.so.9:_ZNK3KTp18JoinChatRoomDialog16selectedChatRoomEv
libKTpWidgets.so.9:_ZNK3KTp24NotificationConfigDialog10metaObjectEv
libKTpWidgets.so.9:_ZThn16_N3KTp15StartChatDialogD0Ev
libKTpWidgets.so.9:_ZThn16_N3KTp15StartChatDialogD1Ev
libKTpWidgets.so.9:_ZThn16_N3KTp16AccountsComboBoxD0Ev
libKTpWidgets.so.9:_ZThn16_N3KTp16AccountsComboBoxD1Ev
libKTpWidgets.so.9:_ZThn16_N3KTp16AddContactDialogD0Ev
libKTpWidgets.so.9:_ZThn16_N3KTp16AddContactDialogD1Ev
libKTpWidgets.so.9:_ZThn16_N3KTp17ContactGridDialogD0Ev
libKTpWidgets.so.9:_ZThn16_N3KTp17ContactGridDialogD1Ev
libKTpWidgets.so.9:_ZThn16_N3KTp17ContactInfoDialogD0Ev
libKTpWidgets.so.9:_ZThn16_N3KTp17ContactInfoDialogD1Ev
libKTpWidgets.so.9:_ZThn16_N3KTp17ContactViewWidgetD0Ev
libKTpWidgets.so.9:_ZThn16_N3KTp17ContactViewWidgetD1Ev
libKTpWidgets.so.9:_ZThn16_N3KTp18JoinChatRoomDialogD0Ev
libKTpWidgets.so.9:_ZThn16_N3KTp18JoinChatRoomDialogD1Ev
libKTpWidgets.so.9:_ZThn16_N3KTp24NotificationConfigDialogD0Ev
libKTpWidgets.so.9:_ZThn16_N3KTp24NotificationConfigDialogD1Ev
